ARM GAS  C:\Users\gx\AppData\Local\Temp\ccYrhkVs.s 			page 1


   1              		.cpu cortex-m4
   2              		.eabi_attribute 27, 1
   3              		.eabi_attribute 28, 1
   4              		.eabi_attribute 20, 1
   5              		.eabi_attribute 21, 1
   6              		.eabi_attribute 23, 3
   7              		.eabi_attribute 24, 1
   8              		.eabi_attribute 25, 1
   9              		.eabi_attribute 26, 1
  10              		.eabi_attribute 30, 1
  11              		.eabi_attribute 34, 1
  12              		.eabi_attribute 18, 4
  13              		.file	"timers.c"
  14              		.text
  15              	.Ltext0:
  16              		.cfi_sections	.debug_frame
  17              		.section	.text.prvGetNextExpireTime,"ax",%progbits
  18              		.align	1
  19              		.arch armv7e-m
  20              		.syntax unified
  21              		.thumb
  22              		.thumb_func
  23              		.fpu fpv4-sp-d16
  25              	prvGetNextExpireTime:
  26              	.LVL0:
  27              	.LFB16:
  28              		.file 1 "Middlewares/Third_Party/FreeRTOS/Source/timers.c"
   1:Middlewares/Third_Party/FreeRTOS/Source/timers.c **** /*
   2:Middlewares/Third_Party/FreeRTOS/Source/timers.c ****     FreeRTOS V9.0.0 - Copyright (C) 2016 Real Time Engineers Ltd.
   3:Middlewares/Third_Party/FreeRTOS/Source/timers.c ****     All rights reserved
   4:Middlewares/Third_Party/FreeRTOS/Source/timers.c **** 
   5:Middlewares/Third_Party/FreeRTOS/Source/timers.c ****     VISIT http://www.FreeRTOS.org TO ENSURE YOU ARE USING THE LATEST VERSION.
   6:Middlewares/Third_Party/FreeRTOS/Source/timers.c **** 
   7:Middlewares/Third_Party/FreeRTOS/Source/timers.c ****     This file is part of the FreeRTOS distribution.
   8:Middlewares/Third_Party/FreeRTOS/Source/timers.c **** 
   9:Middlewares/Third_Party/FreeRTOS/Source/timers.c ****     FreeRTOS is free software; you can redistribute it and/or modify it under
  10:Middlewares/Third_Party/FreeRTOS/Source/timers.c ****     the terms of the GNU General Public License (version 2) as published by the
  11:Middlewares/Third_Party/FreeRTOS/Source/timers.c ****     Free Software Foundation >>>> AND MODIFIED BY <<<< the FreeRTOS exception.
  12:Middlewares/Third_Party/FreeRTOS/Source/timers.c **** 
  13:Middlewares/Third_Party/FreeRTOS/Source/timers.c ****     ***************************************************************************
  14:Middlewares/Third_Party/FreeRTOS/Source/timers.c ****     >>!   NOTE: The modification to the GPL is included to allow you to     !<<
  15:Middlewares/Third_Party/FreeRTOS/Source/timers.c ****     >>!   distribute a combined work that includes FreeRTOS without being   !<<
  16:Middlewares/Third_Party/FreeRTOS/Source/timers.c ****     >>!   obliged to provide the source code for proprietary components     !<<
  17:Middlewares/Third_Party/FreeRTOS/Source/timers.c ****     >>!   outside of the FreeRTOS kernel.                                   !<<
  18:Middlewares/Third_Party/FreeRTOS/Source/timers.c ****     ***************************************************************************
  19:Middlewares/Third_Party/FreeRTOS/Source/timers.c **** 
  20:Middlewares/Third_Party/FreeRTOS/Source/timers.c ****     FreeRTOS is distributed in the hope that it will be useful, but WITHOUT ANY
  21:Middlewares/Third_Party/FreeRTOS/Source/timers.c ****     WARRANTY; without even the implied warranty of MERCHANTABILITY or FITNESS
  22:Middlewares/Third_Party/FreeRTOS/Source/timers.c ****     FOR A PARTICULAR PURPOSE.  Full license text is available on the following
  23:Middlewares/Third_Party/FreeRTOS/Source/timers.c ****     link: http://www.freertos.org/a00114.html
  24:Middlewares/Third_Party/FreeRTOS/Source/timers.c **** 
  25:Middlewares/Third_Party/FreeRTOS/Source/timers.c ****     ***************************************************************************
  26:Middlewares/Third_Party/FreeRTOS/Source/timers.c ****      *                                                                       *
  27:Middlewares/Third_Party/FreeRTOS/Source/timers.c ****      *    FreeRTOS provides completely free yet professionally developed,    *
  28:Middlewares/Third_Party/FreeRTOS/Source/timers.c ****      *    robust, strictly quality controlled, supported, and cross          *
  29:Middlewares/Third_Party/FreeRTOS/Source/timers.c ****      *    platform software that is more than just the market leader, it     *
  30:Middlewares/Third_Party/FreeRTOS/Source/timers.c ****      *    is the industry's de facto standard.                               *
ARM GAS  C:\Users\gx\AppData\Local\Temp\ccYrhkVs.s 			page 2


  31:Middlewares/Third_Party/FreeRTOS/Source/timers.c ****      *                                                                       *
  32:Middlewares/Third_Party/FreeRTOS/Source/timers.c ****      *    Help yourself get started quickly while simultaneously helping     *
  33:Middlewares/Third_Party/FreeRTOS/Source/timers.c ****      *    to support the FreeRTOS project by purchasing a FreeRTOS           *
  34:Middlewares/Third_Party/FreeRTOS/Source/timers.c ****      *    tutorial book, reference manual, or both:                          *
  35:Middlewares/Third_Party/FreeRTOS/Source/timers.c ****      *    http://www.FreeRTOS.org/Documentation                              *
  36:Middlewares/Third_Party/FreeRTOS/Source/timers.c ****      *                                                                       *
  37:Middlewares/Third_Party/FreeRTOS/Source/timers.c ****     ***************************************************************************
  38:Middlewares/Third_Party/FreeRTOS/Source/timers.c **** 
  39:Middlewares/Third_Party/FreeRTOS/Source/timers.c ****     http://www.FreeRTOS.org/FAQHelp.html - Having a problem?  Start by reading
  40:Middlewares/Third_Party/FreeRTOS/Source/timers.c ****     the FAQ page "My application does not run, what could be wrong?".  Have you
  41:Middlewares/Third_Party/FreeRTOS/Source/timers.c ****     defined configASSERT()?
  42:Middlewares/Third_Party/FreeRTOS/Source/timers.c **** 
  43:Middlewares/Third_Party/FreeRTOS/Source/timers.c ****     http://www.FreeRTOS.org/support - In return for receiving this top quality
  44:Middlewares/Third_Party/FreeRTOS/Source/timers.c ****     embedded software for free we request you assist our global community by
  45:Middlewares/Third_Party/FreeRTOS/Source/timers.c ****     participating in the support forum.
  46:Middlewares/Third_Party/FreeRTOS/Source/timers.c **** 
  47:Middlewares/Third_Party/FreeRTOS/Source/timers.c ****     http://www.FreeRTOS.org/training - Investing in training allows your team to
  48:Middlewares/Third_Party/FreeRTOS/Source/timers.c ****     be as productive as possible as early as possible.  Now you can receive
  49:Middlewares/Third_Party/FreeRTOS/Source/timers.c ****     FreeRTOS training directly from Richard Barry, CEO of Real Time Engineers
  50:Middlewares/Third_Party/FreeRTOS/Source/timers.c ****     Ltd, and the world's leading authority on the world's leading RTOS.
  51:Middlewares/Third_Party/FreeRTOS/Source/timers.c **** 
  52:Middlewares/Third_Party/FreeRTOS/Source/timers.c ****     http://www.FreeRTOS.org/plus - A selection of FreeRTOS ecosystem products,
  53:Middlewares/Third_Party/FreeRTOS/Source/timers.c ****     including FreeRTOS+Trace - an indispensable productivity tool, a DOS
  54:Middlewares/Third_Party/FreeRTOS/Source/timers.c ****     compatible FAT file system, and our tiny thread aware UDP/IP stack.
  55:Middlewares/Third_Party/FreeRTOS/Source/timers.c **** 
  56:Middlewares/Third_Party/FreeRTOS/Source/timers.c ****     http://www.FreeRTOS.org/labs - Where new FreeRTOS products go to incubate.
  57:Middlewares/Third_Party/FreeRTOS/Source/timers.c ****     Come and try FreeRTOS+TCP, our new open source TCP/IP stack for FreeRTOS.
  58:Middlewares/Third_Party/FreeRTOS/Source/timers.c **** 
  59:Middlewares/Third_Party/FreeRTOS/Source/timers.c ****     http://www.OpenRTOS.com - Real Time Engineers ltd. license FreeRTOS to High
  60:Middlewares/Third_Party/FreeRTOS/Source/timers.c ****     Integrity Systems ltd. to sell under the OpenRTOS brand.  Low cost OpenRTOS
  61:Middlewares/Third_Party/FreeRTOS/Source/timers.c ****     licenses offer ticketed support, indemnification and commercial middleware.
  62:Middlewares/Third_Party/FreeRTOS/Source/timers.c **** 
  63:Middlewares/Third_Party/FreeRTOS/Source/timers.c ****     http://www.SafeRTOS.com - High Integrity Systems also provide a safety
  64:Middlewares/Third_Party/FreeRTOS/Source/timers.c ****     engineered and independently SIL3 certified version for use in safety and
  65:Middlewares/Third_Party/FreeRTOS/Source/timers.c ****     mission critical applications that require provable dependability.
  66:Middlewares/Third_Party/FreeRTOS/Source/timers.c **** 
  67:Middlewares/Third_Party/FreeRTOS/Source/timers.c ****     1 tab == 4 spaces!
  68:Middlewares/Third_Party/FreeRTOS/Source/timers.c **** */
  69:Middlewares/Third_Party/FreeRTOS/Source/timers.c **** 
  70:Middlewares/Third_Party/FreeRTOS/Source/timers.c **** /* Standard includes. */
  71:Middlewares/Third_Party/FreeRTOS/Source/timers.c **** #include <stdlib.h>
  72:Middlewares/Third_Party/FreeRTOS/Source/timers.c **** 
  73:Middlewares/Third_Party/FreeRTOS/Source/timers.c **** /* Defining MPU_WRAPPERS_INCLUDED_FROM_API_FILE prevents task.h from redefining
  74:Middlewares/Third_Party/FreeRTOS/Source/timers.c **** all the API functions to use the MPU wrappers.  That should only be done when
  75:Middlewares/Third_Party/FreeRTOS/Source/timers.c **** task.h is included from an application file. */
  76:Middlewares/Third_Party/FreeRTOS/Source/timers.c **** #define MPU_WRAPPERS_INCLUDED_FROM_API_FILE
  77:Middlewares/Third_Party/FreeRTOS/Source/timers.c **** 
  78:Middlewares/Third_Party/FreeRTOS/Source/timers.c **** #include "FreeRTOS.h"
  79:Middlewares/Third_Party/FreeRTOS/Source/timers.c **** #include "task.h"
  80:Middlewares/Third_Party/FreeRTOS/Source/timers.c **** #include "queue.h"
  81:Middlewares/Third_Party/FreeRTOS/Source/timers.c **** #include "timers.h"
  82:Middlewares/Third_Party/FreeRTOS/Source/timers.c **** 
  83:Middlewares/Third_Party/FreeRTOS/Source/timers.c **** #if ( INCLUDE_xTimerPendFunctionCall == 1 ) && ( configUSE_TIMERS == 0 )
  84:Middlewares/Third_Party/FreeRTOS/Source/timers.c **** 	#error configUSE_TIMERS must be set to 1 to make the xTimerPendFunctionCall() function available.
  85:Middlewares/Third_Party/FreeRTOS/Source/timers.c **** #endif
  86:Middlewares/Third_Party/FreeRTOS/Source/timers.c **** 
  87:Middlewares/Third_Party/FreeRTOS/Source/timers.c **** /* Lint e961 and e750 are suppressed as a MISRA exception justified because the
ARM GAS  C:\Users\gx\AppData\Local\Temp\ccYrhkVs.s 			page 3


  88:Middlewares/Third_Party/FreeRTOS/Source/timers.c **** MPU ports require MPU_WRAPPERS_INCLUDED_FROM_API_FILE to be defined for the
  89:Middlewares/Third_Party/FreeRTOS/Source/timers.c **** header files above, but not in this file, in order to generate the correct
  90:Middlewares/Third_Party/FreeRTOS/Source/timers.c **** privileged Vs unprivileged linkage and placement. */
  91:Middlewares/Third_Party/FreeRTOS/Source/timers.c **** #undef MPU_WRAPPERS_INCLUDED_FROM_API_FILE /*lint !e961 !e750. */
  92:Middlewares/Third_Party/FreeRTOS/Source/timers.c **** 
  93:Middlewares/Third_Party/FreeRTOS/Source/timers.c **** 
  94:Middlewares/Third_Party/FreeRTOS/Source/timers.c **** /* This entire source file will be skipped if the application is not configured
  95:Middlewares/Third_Party/FreeRTOS/Source/timers.c **** to include software timer functionality.  This #if is closed at the very bottom
  96:Middlewares/Third_Party/FreeRTOS/Source/timers.c **** of this file.  If you want to include software timer functionality then ensure
  97:Middlewares/Third_Party/FreeRTOS/Source/timers.c **** configUSE_TIMERS is set to 1 in FreeRTOSConfig.h. */
  98:Middlewares/Third_Party/FreeRTOS/Source/timers.c **** #if ( configUSE_TIMERS == 1 )
  99:Middlewares/Third_Party/FreeRTOS/Source/timers.c **** 
 100:Middlewares/Third_Party/FreeRTOS/Source/timers.c **** /* Misc definitions. */
 101:Middlewares/Third_Party/FreeRTOS/Source/timers.c **** #define tmrNO_DELAY		( TickType_t ) 0U
 102:Middlewares/Third_Party/FreeRTOS/Source/timers.c **** 
 103:Middlewares/Third_Party/FreeRTOS/Source/timers.c **** /* The definition of the timers themselves. */
 104:Middlewares/Third_Party/FreeRTOS/Source/timers.c **** typedef struct tmrTimerControl
 105:Middlewares/Third_Party/FreeRTOS/Source/timers.c **** {
 106:Middlewares/Third_Party/FreeRTOS/Source/timers.c **** 	const char				*pcTimerName;		/*<< Text name.  This is not used by the kernel, it is included simpl
 107:Middlewares/Third_Party/FreeRTOS/Source/timers.c **** 	ListItem_t				xTimerListItem;		/*<< Standard linked list item as used by all kernel features for e
 108:Middlewares/Third_Party/FreeRTOS/Source/timers.c **** 	TickType_t				xTimerPeriodInTicks;/*<< How quickly and often the timer expires. */
 109:Middlewares/Third_Party/FreeRTOS/Source/timers.c **** 	UBaseType_t				uxAutoReload;		/*<< Set to pdTRUE if the timer should be automatically restarted on
 110:Middlewares/Third_Party/FreeRTOS/Source/timers.c **** 	void 					*pvTimerID;			/*<< An ID to identify the timer.  This allows the timer to be identified 
 111:Middlewares/Third_Party/FreeRTOS/Source/timers.c **** 	TimerCallbackFunction_t	pxCallbackFunction;	/*<< The function that will be called when the timer e
 112:Middlewares/Third_Party/FreeRTOS/Source/timers.c **** 	#if( configUSE_TRACE_FACILITY == 1 )
 113:Middlewares/Third_Party/FreeRTOS/Source/timers.c **** 		UBaseType_t			uxTimerNumber;		/*<< An ID assigned by trace tools such as FreeRTOS+Trace */
 114:Middlewares/Third_Party/FreeRTOS/Source/timers.c **** 	#endif
 115:Middlewares/Third_Party/FreeRTOS/Source/timers.c **** 
 116:Middlewares/Third_Party/FreeRTOS/Source/timers.c **** 	#if( ( configSUPPORT_STATIC_ALLOCATION == 1 ) && ( configSUPPORT_DYNAMIC_ALLOCATION == 1 ) )
 117:Middlewares/Third_Party/FreeRTOS/Source/timers.c **** 		uint8_t 			ucStaticallyAllocated; /*<< Set to pdTRUE if the timer was created statically so no at
 118:Middlewares/Third_Party/FreeRTOS/Source/timers.c **** 	#endif
 119:Middlewares/Third_Party/FreeRTOS/Source/timers.c **** } xTIMER;
 120:Middlewares/Third_Party/FreeRTOS/Source/timers.c **** 
 121:Middlewares/Third_Party/FreeRTOS/Source/timers.c **** /* The old xTIMER name is maintained above then typedefed to the new Timer_t
 122:Middlewares/Third_Party/FreeRTOS/Source/timers.c **** name below to enable the use of older kernel aware debuggers. */
 123:Middlewares/Third_Party/FreeRTOS/Source/timers.c **** typedef xTIMER Timer_t;
 124:Middlewares/Third_Party/FreeRTOS/Source/timers.c **** 
 125:Middlewares/Third_Party/FreeRTOS/Source/timers.c **** /* The definition of messages that can be sent and received on the timer queue.
 126:Middlewares/Third_Party/FreeRTOS/Source/timers.c **** Two types of message can be queued - messages that manipulate a software timer,
 127:Middlewares/Third_Party/FreeRTOS/Source/timers.c **** and messages that request the execution of a non-timer related callback.  The
 128:Middlewares/Third_Party/FreeRTOS/Source/timers.c **** two message types are defined in two separate structures, xTimerParametersType
 129:Middlewares/Third_Party/FreeRTOS/Source/timers.c **** and xCallbackParametersType respectively. */
 130:Middlewares/Third_Party/FreeRTOS/Source/timers.c **** typedef struct tmrTimerParameters
 131:Middlewares/Third_Party/FreeRTOS/Source/timers.c **** {
 132:Middlewares/Third_Party/FreeRTOS/Source/timers.c **** 	TickType_t			xMessageValue;		/*<< An optional value used by a subset of commands, for example, whe
 133:Middlewares/Third_Party/FreeRTOS/Source/timers.c **** 	Timer_t *			pxTimer;			/*<< The timer to which the command will be applied. */
 134:Middlewares/Third_Party/FreeRTOS/Source/timers.c **** } TimerParameter_t;
 135:Middlewares/Third_Party/FreeRTOS/Source/timers.c **** 
 136:Middlewares/Third_Party/FreeRTOS/Source/timers.c **** 
 137:Middlewares/Third_Party/FreeRTOS/Source/timers.c **** typedef struct tmrCallbackParameters
 138:Middlewares/Third_Party/FreeRTOS/Source/timers.c **** {
 139:Middlewares/Third_Party/FreeRTOS/Source/timers.c **** 	PendedFunction_t	pxCallbackFunction;	/* << The callback function to execute. */
 140:Middlewares/Third_Party/FreeRTOS/Source/timers.c **** 	void *pvParameter1;						/* << The value that will be used as the callback functions first paramet
 141:Middlewares/Third_Party/FreeRTOS/Source/timers.c **** 	uint32_t ulParameter2;					/* << The value that will be used as the callback functions second para
 142:Middlewares/Third_Party/FreeRTOS/Source/timers.c **** } CallbackParameters_t;
 143:Middlewares/Third_Party/FreeRTOS/Source/timers.c **** 
 144:Middlewares/Third_Party/FreeRTOS/Source/timers.c **** /* The structure that contains the two message types, along with an identifier
ARM GAS  C:\Users\gx\AppData\Local\Temp\ccYrhkVs.s 			page 4


 145:Middlewares/Third_Party/FreeRTOS/Source/timers.c **** that is used to determine which message type is valid. */
 146:Middlewares/Third_Party/FreeRTOS/Source/timers.c **** typedef struct tmrTimerQueueMessage
 147:Middlewares/Third_Party/FreeRTOS/Source/timers.c **** {
 148:Middlewares/Third_Party/FreeRTOS/Source/timers.c **** 	BaseType_t			xMessageID;			/*<< The command being sent to the timer service task. */
 149:Middlewares/Third_Party/FreeRTOS/Source/timers.c **** 	union
 150:Middlewares/Third_Party/FreeRTOS/Source/timers.c **** 	{
 151:Middlewares/Third_Party/FreeRTOS/Source/timers.c **** 		TimerParameter_t xTimerParameters;
 152:Middlewares/Third_Party/FreeRTOS/Source/timers.c **** 
 153:Middlewares/Third_Party/FreeRTOS/Source/timers.c **** 		/* Don't include xCallbackParameters if it is not going to be used as
 154:Middlewares/Third_Party/FreeRTOS/Source/timers.c **** 		it makes the structure (and therefore the timer queue) larger. */
 155:Middlewares/Third_Party/FreeRTOS/Source/timers.c **** 		#if ( INCLUDE_xTimerPendFunctionCall == 1 )
 156:Middlewares/Third_Party/FreeRTOS/Source/timers.c **** 			CallbackParameters_t xCallbackParameters;
 157:Middlewares/Third_Party/FreeRTOS/Source/timers.c **** 		#endif /* INCLUDE_xTimerPendFunctionCall */
 158:Middlewares/Third_Party/FreeRTOS/Source/timers.c **** 	} u;
 159:Middlewares/Third_Party/FreeRTOS/Source/timers.c **** } DaemonTaskMessage_t;
 160:Middlewares/Third_Party/FreeRTOS/Source/timers.c **** 
 161:Middlewares/Third_Party/FreeRTOS/Source/timers.c **** /*lint -e956 A manual analysis and inspection has been used to determine which
 162:Middlewares/Third_Party/FreeRTOS/Source/timers.c **** static variables must be declared volatile. */
 163:Middlewares/Third_Party/FreeRTOS/Source/timers.c **** 
 164:Middlewares/Third_Party/FreeRTOS/Source/timers.c **** /* The list in which active timers are stored.  Timers are referenced in expire
 165:Middlewares/Third_Party/FreeRTOS/Source/timers.c **** time order, with the nearest expiry time at the front of the list.  Only the
 166:Middlewares/Third_Party/FreeRTOS/Source/timers.c **** timer service task is allowed to access these lists. */
 167:Middlewares/Third_Party/FreeRTOS/Source/timers.c **** PRIVILEGED_DATA static List_t xActiveTimerList1;
 168:Middlewares/Third_Party/FreeRTOS/Source/timers.c **** PRIVILEGED_DATA static List_t xActiveTimerList2;
 169:Middlewares/Third_Party/FreeRTOS/Source/timers.c **** PRIVILEGED_DATA static List_t *pxCurrentTimerList;
 170:Middlewares/Third_Party/FreeRTOS/Source/timers.c **** PRIVILEGED_DATA static List_t *pxOverflowTimerList;
 171:Middlewares/Third_Party/FreeRTOS/Source/timers.c **** 
 172:Middlewares/Third_Party/FreeRTOS/Source/timers.c **** /* A queue that is used to send commands to the timer service task. */
 173:Middlewares/Third_Party/FreeRTOS/Source/timers.c **** PRIVILEGED_INITIALIZED_DATA static QueueHandle_t xTimerQueue = NULL;
 174:Middlewares/Third_Party/FreeRTOS/Source/timers.c **** PRIVILEGED_INITIALIZED_DATA static TaskHandle_t xTimerTaskHandle = NULL;
 175:Middlewares/Third_Party/FreeRTOS/Source/timers.c **** 
 176:Middlewares/Third_Party/FreeRTOS/Source/timers.c **** /*lint +e956 */
 177:Middlewares/Third_Party/FreeRTOS/Source/timers.c **** 
 178:Middlewares/Third_Party/FreeRTOS/Source/timers.c **** /*-----------------------------------------------------------*/
 179:Middlewares/Third_Party/FreeRTOS/Source/timers.c **** 
 180:Middlewares/Third_Party/FreeRTOS/Source/timers.c **** #if( configSUPPORT_STATIC_ALLOCATION == 1 )
 181:Middlewares/Third_Party/FreeRTOS/Source/timers.c **** 
 182:Middlewares/Third_Party/FreeRTOS/Source/timers.c **** 	/* If static allocation is supported then the application must provide the
 183:Middlewares/Third_Party/FreeRTOS/Source/timers.c **** 	following callback function - which enables the application to optionally
 184:Middlewares/Third_Party/FreeRTOS/Source/timers.c **** 	provide the memory that will be used by the timer task as the task's stack
 185:Middlewares/Third_Party/FreeRTOS/Source/timers.c **** 	and TCB. */
 186:Middlewares/Third_Party/FreeRTOS/Source/timers.c **** 	extern void vApplicationGetTimerTaskMemory( StaticTask_t **ppxTimerTaskTCBBuffer, StackType_t **pp
 187:Middlewares/Third_Party/FreeRTOS/Source/timers.c **** 
 188:Middlewares/Third_Party/FreeRTOS/Source/timers.c **** #endif
 189:Middlewares/Third_Party/FreeRTOS/Source/timers.c **** 
 190:Middlewares/Third_Party/FreeRTOS/Source/timers.c **** /*
 191:Middlewares/Third_Party/FreeRTOS/Source/timers.c ****  * Initialise the infrastructure used by the timer service task if it has not
 192:Middlewares/Third_Party/FreeRTOS/Source/timers.c ****  * been initialised already.
 193:Middlewares/Third_Party/FreeRTOS/Source/timers.c ****  */
 194:Middlewares/Third_Party/FreeRTOS/Source/timers.c **** PRIVILEGED_FUNCTION static void prvCheckForValidListAndQueue( void );
 195:Middlewares/Third_Party/FreeRTOS/Source/timers.c **** 
 196:Middlewares/Third_Party/FreeRTOS/Source/timers.c **** /*
 197:Middlewares/Third_Party/FreeRTOS/Source/timers.c ****  * The timer service task (daemon).  Timer functionality is controlled by this
 198:Middlewares/Third_Party/FreeRTOS/Source/timers.c ****  * task.  Other tasks communicate with the timer service task using the
 199:Middlewares/Third_Party/FreeRTOS/Source/timers.c ****  * xTimerQueue queue.
 200:Middlewares/Third_Party/FreeRTOS/Source/timers.c ****  */
 201:Middlewares/Third_Party/FreeRTOS/Source/timers.c **** PRIVILEGED_FUNCTION static void prvTimerTask( void *pvParameters );
ARM GAS  C:\Users\gx\AppData\Local\Temp\ccYrhkVs.s 			page 5


 202:Middlewares/Third_Party/FreeRTOS/Source/timers.c **** 
 203:Middlewares/Third_Party/FreeRTOS/Source/timers.c **** /*
 204:Middlewares/Third_Party/FreeRTOS/Source/timers.c ****  * Called by the timer service task to interpret and process a command it
 205:Middlewares/Third_Party/FreeRTOS/Source/timers.c ****  * received on the timer queue.
 206:Middlewares/Third_Party/FreeRTOS/Source/timers.c ****  */
 207:Middlewares/Third_Party/FreeRTOS/Source/timers.c **** PRIVILEGED_FUNCTION static void prvProcessReceivedCommands( void );
 208:Middlewares/Third_Party/FreeRTOS/Source/timers.c **** 
 209:Middlewares/Third_Party/FreeRTOS/Source/timers.c **** /*
 210:Middlewares/Third_Party/FreeRTOS/Source/timers.c ****  * Insert the timer into either xActiveTimerList1, or xActiveTimerList2,
 211:Middlewares/Third_Party/FreeRTOS/Source/timers.c ****  * depending on if the expire time causes a timer counter overflow.
 212:Middlewares/Third_Party/FreeRTOS/Source/timers.c ****  */
 213:Middlewares/Third_Party/FreeRTOS/Source/timers.c **** PRIVILEGED_FUNCTION static BaseType_t prvInsertTimerInActiveList( Timer_t * const pxTimer, const Ti
 214:Middlewares/Third_Party/FreeRTOS/Source/timers.c **** 
 215:Middlewares/Third_Party/FreeRTOS/Source/timers.c **** /*
 216:Middlewares/Third_Party/FreeRTOS/Source/timers.c ****  * An active timer has reached its expire time.  Reload the timer if it is an
 217:Middlewares/Third_Party/FreeRTOS/Source/timers.c ****  * auto reload timer, then call its callback.
 218:Middlewares/Third_Party/FreeRTOS/Source/timers.c ****  */
 219:Middlewares/Third_Party/FreeRTOS/Source/timers.c **** PRIVILEGED_FUNCTION static void prvProcessExpiredTimer( const TickType_t xNextExpireTime, const Tic
 220:Middlewares/Third_Party/FreeRTOS/Source/timers.c **** 
 221:Middlewares/Third_Party/FreeRTOS/Source/timers.c **** /*
 222:Middlewares/Third_Party/FreeRTOS/Source/timers.c ****  * The tick count has overflowed.  Switch the timer lists after ensuring the
 223:Middlewares/Third_Party/FreeRTOS/Source/timers.c ****  * current timer list does not still reference some timers.
 224:Middlewares/Third_Party/FreeRTOS/Source/timers.c ****  */
 225:Middlewares/Third_Party/FreeRTOS/Source/timers.c **** PRIVILEGED_FUNCTION static void prvSwitchTimerLists( void );
 226:Middlewares/Third_Party/FreeRTOS/Source/timers.c **** 
 227:Middlewares/Third_Party/FreeRTOS/Source/timers.c **** /*
 228:Middlewares/Third_Party/FreeRTOS/Source/timers.c ****  * Obtain the current tick count, setting *pxTimerListsWereSwitched to pdTRUE
 229:Middlewares/Third_Party/FreeRTOS/Source/timers.c ****  * if a tick count overflow occurred since prvSampleTimeNow() was last called.
 230:Middlewares/Third_Party/FreeRTOS/Source/timers.c ****  */
 231:Middlewares/Third_Party/FreeRTOS/Source/timers.c **** PRIVILEGED_FUNCTION static TickType_t prvSampleTimeNow( BaseType_t * const pxTimerListsWereSwitched
 232:Middlewares/Third_Party/FreeRTOS/Source/timers.c **** 
 233:Middlewares/Third_Party/FreeRTOS/Source/timers.c **** /*
 234:Middlewares/Third_Party/FreeRTOS/Source/timers.c ****  * If the timer list contains any active timers then return the expire time of
 235:Middlewares/Third_Party/FreeRTOS/Source/timers.c ****  * the timer that will expire first and set *pxListWasEmpty to false.  If the
 236:Middlewares/Third_Party/FreeRTOS/Source/timers.c ****  * timer list does not contain any timers then return 0 and set *pxListWasEmpty
 237:Middlewares/Third_Party/FreeRTOS/Source/timers.c ****  * to pdTRUE.
 238:Middlewares/Third_Party/FreeRTOS/Source/timers.c ****  */
 239:Middlewares/Third_Party/FreeRTOS/Source/timers.c **** PRIVILEGED_FUNCTION static TickType_t prvGetNextExpireTime( BaseType_t * const pxListWasEmpty );
 240:Middlewares/Third_Party/FreeRTOS/Source/timers.c **** 
 241:Middlewares/Third_Party/FreeRTOS/Source/timers.c **** /*
 242:Middlewares/Third_Party/FreeRTOS/Source/timers.c ****  * If a timer has expired, process it.  Otherwise, block the timer service task
 243:Middlewares/Third_Party/FreeRTOS/Source/timers.c ****  * until either a timer does expire or a command is received.
 244:Middlewares/Third_Party/FreeRTOS/Source/timers.c ****  */
 245:Middlewares/Third_Party/FreeRTOS/Source/timers.c **** PRIVILEGED_FUNCTION static void prvProcessTimerOrBlockTask( const TickType_t xNextExpireTime, BaseT
 246:Middlewares/Third_Party/FreeRTOS/Source/timers.c **** 
 247:Middlewares/Third_Party/FreeRTOS/Source/timers.c **** /*
 248:Middlewares/Third_Party/FreeRTOS/Source/timers.c ****  * Called after a Timer_t structure has been allocated either statically or
 249:Middlewares/Third_Party/FreeRTOS/Source/timers.c ****  * dynamically to fill in the structure's members.
 250:Middlewares/Third_Party/FreeRTOS/Source/timers.c ****  */
 251:Middlewares/Third_Party/FreeRTOS/Source/timers.c **** PRIVILEGED_FUNCTION static void prvInitialiseNewTimer(	const char * const pcTimerName,
 252:Middlewares/Third_Party/FreeRTOS/Source/timers.c **** 									const TickType_t xTimerPeriodInTicks,
 253:Middlewares/Third_Party/FreeRTOS/Source/timers.c **** 									const UBaseType_t uxAutoReload,
 254:Middlewares/Third_Party/FreeRTOS/Source/timers.c **** 									void * const pvTimerID,
 255:Middlewares/Third_Party/FreeRTOS/Source/timers.c **** 									TimerCallbackFunction_t pxCallbackFunction,
 256:Middlewares/Third_Party/FreeRTOS/Source/timers.c **** 									Timer_t *pxNewTimer ); /*lint !e971 Unqualified char types are allowed for strings and sin
 257:Middlewares/Third_Party/FreeRTOS/Source/timers.c **** /*-----------------------------------------------------------*/
 258:Middlewares/Third_Party/FreeRTOS/Source/timers.c **** 
ARM GAS  C:\Users\gx\AppData\Local\Temp\ccYrhkVs.s 			page 6


 259:Middlewares/Third_Party/FreeRTOS/Source/timers.c **** BaseType_t xTimerCreateTimerTask( void )
 260:Middlewares/Third_Party/FreeRTOS/Source/timers.c **** {
 261:Middlewares/Third_Party/FreeRTOS/Source/timers.c **** BaseType_t xReturn = pdFAIL;
 262:Middlewares/Third_Party/FreeRTOS/Source/timers.c **** 
 263:Middlewares/Third_Party/FreeRTOS/Source/timers.c **** 	/* This function is called when the scheduler is started if
 264:Middlewares/Third_Party/FreeRTOS/Source/timers.c **** 	configUSE_TIMERS is set to 1.  Check that the infrastructure used by the
 265:Middlewares/Third_Party/FreeRTOS/Source/timers.c **** 	timer service task has been created/initialised.  If timers have already
 266:Middlewares/Third_Party/FreeRTOS/Source/timers.c **** 	been created then the initialisation will already have been performed. */
 267:Middlewares/Third_Party/FreeRTOS/Source/timers.c **** 	prvCheckForValidListAndQueue();
 268:Middlewares/Third_Party/FreeRTOS/Source/timers.c **** 
 269:Middlewares/Third_Party/FreeRTOS/Source/timers.c **** 	if( xTimerQueue != NULL )
 270:Middlewares/Third_Party/FreeRTOS/Source/timers.c **** 	{
 271:Middlewares/Third_Party/FreeRTOS/Source/timers.c **** 		#if( configSUPPORT_STATIC_ALLOCATION == 1 )
 272:Middlewares/Third_Party/FreeRTOS/Source/timers.c **** 		{
 273:Middlewares/Third_Party/FreeRTOS/Source/timers.c **** 			StaticTask_t *pxTimerTaskTCBBuffer = NULL;
 274:Middlewares/Third_Party/FreeRTOS/Source/timers.c **** 			StackType_t *pxTimerTaskStackBuffer = NULL;
 275:Middlewares/Third_Party/FreeRTOS/Source/timers.c **** 			uint32_t ulTimerTaskStackSize;
 276:Middlewares/Third_Party/FreeRTOS/Source/timers.c **** 
 277:Middlewares/Third_Party/FreeRTOS/Source/timers.c **** 			vApplicationGetTimerTaskMemory( &pxTimerTaskTCBBuffer, &pxTimerTaskStackBuffer, &ulTimerTaskStac
 278:Middlewares/Third_Party/FreeRTOS/Source/timers.c **** 			xTimerTaskHandle = xTaskCreateStatic(	prvTimerTask,
 279:Middlewares/Third_Party/FreeRTOS/Source/timers.c **** 													"Tmr Svc",
 280:Middlewares/Third_Party/FreeRTOS/Source/timers.c **** 													ulTimerTaskStackSize,
 281:Middlewares/Third_Party/FreeRTOS/Source/timers.c **** 													NULL,
 282:Middlewares/Third_Party/FreeRTOS/Source/timers.c **** 													( ( UBaseType_t ) configTIMER_TASK_PRIORITY ) | portPRIVILEGE_BIT,
 283:Middlewares/Third_Party/FreeRTOS/Source/timers.c **** 													pxTimerTaskStackBuffer,
 284:Middlewares/Third_Party/FreeRTOS/Source/timers.c **** 													pxTimerTaskTCBBuffer );
 285:Middlewares/Third_Party/FreeRTOS/Source/timers.c **** 
 286:Middlewares/Third_Party/FreeRTOS/Source/timers.c **** 			if( xTimerTaskHandle != NULL )
 287:Middlewares/Third_Party/FreeRTOS/Source/timers.c **** 			{
 288:Middlewares/Third_Party/FreeRTOS/Source/timers.c **** 				xReturn = pdPASS;
 289:Middlewares/Third_Party/FreeRTOS/Source/timers.c **** 			}
 290:Middlewares/Third_Party/FreeRTOS/Source/timers.c **** 		}
 291:Middlewares/Third_Party/FreeRTOS/Source/timers.c **** 		#else
 292:Middlewares/Third_Party/FreeRTOS/Source/timers.c **** 		{
 293:Middlewares/Third_Party/FreeRTOS/Source/timers.c **** 			xReturn = xTaskCreate(	prvTimerTask,
 294:Middlewares/Third_Party/FreeRTOS/Source/timers.c **** 									"Tmr Svc",
 295:Middlewares/Third_Party/FreeRTOS/Source/timers.c **** 									configTIMER_TASK_STACK_DEPTH,
 296:Middlewares/Third_Party/FreeRTOS/Source/timers.c **** 									NULL,
 297:Middlewares/Third_Party/FreeRTOS/Source/timers.c **** 									( ( UBaseType_t ) configTIMER_TASK_PRIORITY ) | portPRIVILEGE_BIT,
 298:Middlewares/Third_Party/FreeRTOS/Source/timers.c **** 									&xTimerTaskHandle );
 299:Middlewares/Third_Party/FreeRTOS/Source/timers.c **** 		}
 300:Middlewares/Third_Party/FreeRTOS/Source/timers.c **** 		#endif /* configSUPPORT_STATIC_ALLOCATION */
 301:Middlewares/Third_Party/FreeRTOS/Source/timers.c **** 	}
 302:Middlewares/Third_Party/FreeRTOS/Source/timers.c **** 	else
 303:Middlewares/Third_Party/FreeRTOS/Source/timers.c **** 	{
 304:Middlewares/Third_Party/FreeRTOS/Source/timers.c **** 		mtCOVERAGE_TEST_MARKER();
 305:Middlewares/Third_Party/FreeRTOS/Source/timers.c **** 	}
 306:Middlewares/Third_Party/FreeRTOS/Source/timers.c **** 
 307:Middlewares/Third_Party/FreeRTOS/Source/timers.c **** 	configASSERT( xReturn );
 308:Middlewares/Third_Party/FreeRTOS/Source/timers.c **** 	return xReturn;
 309:Middlewares/Third_Party/FreeRTOS/Source/timers.c **** }
 310:Middlewares/Third_Party/FreeRTOS/Source/timers.c **** /*-----------------------------------------------------------*/
 311:Middlewares/Third_Party/FreeRTOS/Source/timers.c **** 
 312:Middlewares/Third_Party/FreeRTOS/Source/timers.c **** #if( configSUPPORT_DYNAMIC_ALLOCATION == 1 )
 313:Middlewares/Third_Party/FreeRTOS/Source/timers.c **** 
 314:Middlewares/Third_Party/FreeRTOS/Source/timers.c **** 	TimerHandle_t xTimerCreate(	const char * const pcTimerName,
 315:Middlewares/Third_Party/FreeRTOS/Source/timers.c **** 								const TickType_t xTimerPeriodInTicks,
ARM GAS  C:\Users\gx\AppData\Local\Temp\ccYrhkVs.s 			page 7


 316:Middlewares/Third_Party/FreeRTOS/Source/timers.c **** 								const UBaseType_t uxAutoReload,
 317:Middlewares/Third_Party/FreeRTOS/Source/timers.c **** 								void * const pvTimerID,
 318:Middlewares/Third_Party/FreeRTOS/Source/timers.c **** 								TimerCallbackFunction_t pxCallbackFunction ) /*lint !e971 Unqualified char types are allowe
 319:Middlewares/Third_Party/FreeRTOS/Source/timers.c **** 	{
 320:Middlewares/Third_Party/FreeRTOS/Source/timers.c **** 	Timer_t *pxNewTimer;
 321:Middlewares/Third_Party/FreeRTOS/Source/timers.c **** 
 322:Middlewares/Third_Party/FreeRTOS/Source/timers.c **** 		pxNewTimer = ( Timer_t * ) pvPortMalloc( sizeof( Timer_t ) );
 323:Middlewares/Third_Party/FreeRTOS/Source/timers.c **** 
 324:Middlewares/Third_Party/FreeRTOS/Source/timers.c **** 		if( pxNewTimer != NULL )
 325:Middlewares/Third_Party/FreeRTOS/Source/timers.c **** 		{
 326:Middlewares/Third_Party/FreeRTOS/Source/timers.c **** 			prvInitialiseNewTimer( pcTimerName, xTimerPeriodInTicks, uxAutoReload, pvTimerID, pxCallbackFunc
 327:Middlewares/Third_Party/FreeRTOS/Source/timers.c **** 
 328:Middlewares/Third_Party/FreeRTOS/Source/timers.c **** 			#if( configSUPPORT_STATIC_ALLOCATION == 1 )
 329:Middlewares/Third_Party/FreeRTOS/Source/timers.c **** 			{
 330:Middlewares/Third_Party/FreeRTOS/Source/timers.c **** 				/* Timers can be created statically or dynamically, so note this
 331:Middlewares/Third_Party/FreeRTOS/Source/timers.c **** 				timer was created dynamically in case the timer is later
 332:Middlewares/Third_Party/FreeRTOS/Source/timers.c **** 				deleted. */
 333:Middlewares/Third_Party/FreeRTOS/Source/timers.c **** 				pxNewTimer->ucStaticallyAllocated = pdFALSE;
 334:Middlewares/Third_Party/FreeRTOS/Source/timers.c **** 			}
 335:Middlewares/Third_Party/FreeRTOS/Source/timers.c **** 			#endif /* configSUPPORT_STATIC_ALLOCATION */
 336:Middlewares/Third_Party/FreeRTOS/Source/timers.c **** 		}
 337:Middlewares/Third_Party/FreeRTOS/Source/timers.c **** 
 338:Middlewares/Third_Party/FreeRTOS/Source/timers.c **** 		return pxNewTimer;
 339:Middlewares/Third_Party/FreeRTOS/Source/timers.c **** 	}
 340:Middlewares/Third_Party/FreeRTOS/Source/timers.c **** 
 341:Middlewares/Third_Party/FreeRTOS/Source/timers.c **** #endif /* configSUPPORT_STATIC_ALLOCATION */
 342:Middlewares/Third_Party/FreeRTOS/Source/timers.c **** /*-----------------------------------------------------------*/
 343:Middlewares/Third_Party/FreeRTOS/Source/timers.c **** 
 344:Middlewares/Third_Party/FreeRTOS/Source/timers.c **** #if( configSUPPORT_STATIC_ALLOCATION == 1 )
 345:Middlewares/Third_Party/FreeRTOS/Source/timers.c **** 
 346:Middlewares/Third_Party/FreeRTOS/Source/timers.c **** 	TimerHandle_t xTimerCreateStatic(	const char * const pcTimerName,
 347:Middlewares/Third_Party/FreeRTOS/Source/timers.c **** 										const TickType_t xTimerPeriodInTicks,
 348:Middlewares/Third_Party/FreeRTOS/Source/timers.c **** 										const UBaseType_t uxAutoReload,
 349:Middlewares/Third_Party/FreeRTOS/Source/timers.c **** 										void * const pvTimerID,
 350:Middlewares/Third_Party/FreeRTOS/Source/timers.c **** 										TimerCallbackFunction_t pxCallbackFunction,
 351:Middlewares/Third_Party/FreeRTOS/Source/timers.c **** 										StaticTimer_t *pxTimerBuffer ) /*lint !e971 Unqualified char types are allowed for string
 352:Middlewares/Third_Party/FreeRTOS/Source/timers.c **** 	{
 353:Middlewares/Third_Party/FreeRTOS/Source/timers.c **** 	Timer_t *pxNewTimer;
 354:Middlewares/Third_Party/FreeRTOS/Source/timers.c **** 
 355:Middlewares/Third_Party/FreeRTOS/Source/timers.c **** 		#if( configASSERT_DEFINED == 1 )
 356:Middlewares/Third_Party/FreeRTOS/Source/timers.c **** 		{
 357:Middlewares/Third_Party/FreeRTOS/Source/timers.c **** 			/* Sanity check that the size of the structure used to declare a
 358:Middlewares/Third_Party/FreeRTOS/Source/timers.c **** 			variable of type StaticTimer_t equals the size of the real timer
 359:Middlewares/Third_Party/FreeRTOS/Source/timers.c **** 			structures. */
 360:Middlewares/Third_Party/FreeRTOS/Source/timers.c **** 			volatile size_t xSize = sizeof( StaticTimer_t );
 361:Middlewares/Third_Party/FreeRTOS/Source/timers.c **** 			configASSERT( xSize == sizeof( Timer_t ) );
 362:Middlewares/Third_Party/FreeRTOS/Source/timers.c **** 		}
 363:Middlewares/Third_Party/FreeRTOS/Source/timers.c **** 		#endif /* configASSERT_DEFINED */
 364:Middlewares/Third_Party/FreeRTOS/Source/timers.c **** 
 365:Middlewares/Third_Party/FreeRTOS/Source/timers.c **** 		/* A pointer to a StaticTimer_t structure MUST be provided, use it. */
 366:Middlewares/Third_Party/FreeRTOS/Source/timers.c **** 		configASSERT( pxTimerBuffer );
 367:Middlewares/Third_Party/FreeRTOS/Source/timers.c **** 		pxNewTimer = ( Timer_t * ) pxTimerBuffer; /*lint !e740 Unusual cast is ok as the structures are d
 368:Middlewares/Third_Party/FreeRTOS/Source/timers.c **** 
 369:Middlewares/Third_Party/FreeRTOS/Source/timers.c **** 		if( pxNewTimer != NULL )
 370:Middlewares/Third_Party/FreeRTOS/Source/timers.c **** 		{
 371:Middlewares/Third_Party/FreeRTOS/Source/timers.c **** 			prvInitialiseNewTimer( pcTimerName, xTimerPeriodInTicks, uxAutoReload, pvTimerID, pxCallbackFunc
 372:Middlewares/Third_Party/FreeRTOS/Source/timers.c **** 
ARM GAS  C:\Users\gx\AppData\Local\Temp\ccYrhkVs.s 			page 8


 373:Middlewares/Third_Party/FreeRTOS/Source/timers.c **** 			#if( configSUPPORT_DYNAMIC_ALLOCATION == 1 )
 374:Middlewares/Third_Party/FreeRTOS/Source/timers.c **** 			{
 375:Middlewares/Third_Party/FreeRTOS/Source/timers.c **** 				/* Timers can be created statically or dynamically so note this
 376:Middlewares/Third_Party/FreeRTOS/Source/timers.c **** 				timer was created statically in case it is later deleted. */
 377:Middlewares/Third_Party/FreeRTOS/Source/timers.c **** 				pxNewTimer->ucStaticallyAllocated = pdTRUE;
 378:Middlewares/Third_Party/FreeRTOS/Source/timers.c **** 			}
 379:Middlewares/Third_Party/FreeRTOS/Source/timers.c **** 			#endif /* configSUPPORT_DYNAMIC_ALLOCATION */
 380:Middlewares/Third_Party/FreeRTOS/Source/timers.c **** 		}
 381:Middlewares/Third_Party/FreeRTOS/Source/timers.c **** 
 382:Middlewares/Third_Party/FreeRTOS/Source/timers.c **** 		return pxNewTimer;
 383:Middlewares/Third_Party/FreeRTOS/Source/timers.c **** 	}
 384:Middlewares/Third_Party/FreeRTOS/Source/timers.c **** 
 385:Middlewares/Third_Party/FreeRTOS/Source/timers.c **** #endif /* configSUPPORT_STATIC_ALLOCATION */
 386:Middlewares/Third_Party/FreeRTOS/Source/timers.c **** /*-----------------------------------------------------------*/
 387:Middlewares/Third_Party/FreeRTOS/Source/timers.c **** 
 388:Middlewares/Third_Party/FreeRTOS/Source/timers.c **** static void prvInitialiseNewTimer(	const char * const pcTimerName,
 389:Middlewares/Third_Party/FreeRTOS/Source/timers.c **** 									const TickType_t xTimerPeriodInTicks,
 390:Middlewares/Third_Party/FreeRTOS/Source/timers.c **** 									const UBaseType_t uxAutoReload,
 391:Middlewares/Third_Party/FreeRTOS/Source/timers.c **** 									void * const pvTimerID,
 392:Middlewares/Third_Party/FreeRTOS/Source/timers.c **** 									TimerCallbackFunction_t pxCallbackFunction,
 393:Middlewares/Third_Party/FreeRTOS/Source/timers.c **** 									Timer_t *pxNewTimer ) /*lint !e971 Unqualified char types are allowed for strings and sing
 394:Middlewares/Third_Party/FreeRTOS/Source/timers.c **** {
 395:Middlewares/Third_Party/FreeRTOS/Source/timers.c **** 	/* 0 is not a valid value for xTimerPeriodInTicks. */
 396:Middlewares/Third_Party/FreeRTOS/Source/timers.c **** 	configASSERT( ( xTimerPeriodInTicks > 0 ) );
 397:Middlewares/Third_Party/FreeRTOS/Source/timers.c **** 
 398:Middlewares/Third_Party/FreeRTOS/Source/timers.c **** 	if( pxNewTimer != NULL )
 399:Middlewares/Third_Party/FreeRTOS/Source/timers.c **** 	{
 400:Middlewares/Third_Party/FreeRTOS/Source/timers.c **** 		/* Ensure the infrastructure used by the timer service task has been
 401:Middlewares/Third_Party/FreeRTOS/Source/timers.c **** 		created/initialised. */
 402:Middlewares/Third_Party/FreeRTOS/Source/timers.c **** 		prvCheckForValidListAndQueue();
 403:Middlewares/Third_Party/FreeRTOS/Source/timers.c **** 
 404:Middlewares/Third_Party/FreeRTOS/Source/timers.c **** 		/* Initialise the timer structure members using the function
 405:Middlewares/Third_Party/FreeRTOS/Source/timers.c **** 		parameters. */
 406:Middlewares/Third_Party/FreeRTOS/Source/timers.c **** 		pxNewTimer->pcTimerName = pcTimerName;
 407:Middlewares/Third_Party/FreeRTOS/Source/timers.c **** 		pxNewTimer->xTimerPeriodInTicks = xTimerPeriodInTicks;
 408:Middlewares/Third_Party/FreeRTOS/Source/timers.c **** 		pxNewTimer->uxAutoReload = uxAutoReload;
 409:Middlewares/Third_Party/FreeRTOS/Source/timers.c **** 		pxNewTimer->pvTimerID = pvTimerID;
 410:Middlewares/Third_Party/FreeRTOS/Source/timers.c **** 		pxNewTimer->pxCallbackFunction = pxCallbackFunction;
 411:Middlewares/Third_Party/FreeRTOS/Source/timers.c **** 		vListInitialiseItem( &( pxNewTimer->xTimerListItem ) );
 412:Middlewares/Third_Party/FreeRTOS/Source/timers.c **** 		traceTIMER_CREATE( pxNewTimer );
 413:Middlewares/Third_Party/FreeRTOS/Source/timers.c **** 	}
 414:Middlewares/Third_Party/FreeRTOS/Source/timers.c **** }
 415:Middlewares/Third_Party/FreeRTOS/Source/timers.c **** /*-----------------------------------------------------------*/
 416:Middlewares/Third_Party/FreeRTOS/Source/timers.c **** 
 417:Middlewares/Third_Party/FreeRTOS/Source/timers.c **** BaseType_t xTimerGenericCommand( TimerHandle_t xTimer, const BaseType_t xCommandID, const TickType_
 418:Middlewares/Third_Party/FreeRTOS/Source/timers.c **** {
 419:Middlewares/Third_Party/FreeRTOS/Source/timers.c **** BaseType_t xReturn = pdFAIL;
 420:Middlewares/Third_Party/FreeRTOS/Source/timers.c **** DaemonTaskMessage_t xMessage;
 421:Middlewares/Third_Party/FreeRTOS/Source/timers.c **** 
 422:Middlewares/Third_Party/FreeRTOS/Source/timers.c **** 	configASSERT( xTimer );
 423:Middlewares/Third_Party/FreeRTOS/Source/timers.c **** 
 424:Middlewares/Third_Party/FreeRTOS/Source/timers.c **** 	/* Send a message to the timer service task to perform a particular action
 425:Middlewares/Third_Party/FreeRTOS/Source/timers.c **** 	on a particular timer definition. */
 426:Middlewares/Third_Party/FreeRTOS/Source/timers.c **** 	if( xTimerQueue != NULL )
 427:Middlewares/Third_Party/FreeRTOS/Source/timers.c **** 	{
 428:Middlewares/Third_Party/FreeRTOS/Source/timers.c **** 		/* Send a command to the timer service task to start the xTimer timer. */
 429:Middlewares/Third_Party/FreeRTOS/Source/timers.c **** 		xMessage.xMessageID = xCommandID;
ARM GAS  C:\Users\gx\AppData\Local\Temp\ccYrhkVs.s 			page 9


 430:Middlewares/Third_Party/FreeRTOS/Source/timers.c **** 		xMessage.u.xTimerParameters.xMessageValue = xOptionalValue;
 431:Middlewares/Third_Party/FreeRTOS/Source/timers.c **** 		xMessage.u.xTimerParameters.pxTimer = ( Timer_t * ) xTimer;
 432:Middlewares/Third_Party/FreeRTOS/Source/timers.c **** 
 433:Middlewares/Third_Party/FreeRTOS/Source/timers.c **** 		if( xCommandID < tmrFIRST_FROM_ISR_COMMAND )
 434:Middlewares/Third_Party/FreeRTOS/Source/timers.c **** 		{
 435:Middlewares/Third_Party/FreeRTOS/Source/timers.c **** 			if( xTaskGetSchedulerState() == taskSCHEDULER_RUNNING )
 436:Middlewares/Third_Party/FreeRTOS/Source/timers.c **** 			{
 437:Middlewares/Third_Party/FreeRTOS/Source/timers.c **** 				xReturn = xQueueSendToBack( xTimerQueue, &xMessage, xTicksToWait );
 438:Middlewares/Third_Party/FreeRTOS/Source/timers.c **** 			}
 439:Middlewares/Third_Party/FreeRTOS/Source/timers.c **** 			else
 440:Middlewares/Third_Party/FreeRTOS/Source/timers.c **** 			{
 441:Middlewares/Third_Party/FreeRTOS/Source/timers.c **** 				xReturn = xQueueSendToBack( xTimerQueue, &xMessage, tmrNO_DELAY );
 442:Middlewares/Third_Party/FreeRTOS/Source/timers.c **** 			}
 443:Middlewares/Third_Party/FreeRTOS/Source/timers.c **** 		}
 444:Middlewares/Third_Party/FreeRTOS/Source/timers.c **** 		else
 445:Middlewares/Third_Party/FreeRTOS/Source/timers.c **** 		{
 446:Middlewares/Third_Party/FreeRTOS/Source/timers.c **** 			xReturn = xQueueSendToBackFromISR( xTimerQueue, &xMessage, pxHigherPriorityTaskWoken );
 447:Middlewares/Third_Party/FreeRTOS/Source/timers.c **** 		}
 448:Middlewares/Third_Party/FreeRTOS/Source/timers.c **** 
 449:Middlewares/Third_Party/FreeRTOS/Source/timers.c **** 		traceTIMER_COMMAND_SEND( xTimer, xCommandID, xOptionalValue, xReturn );
 450:Middlewares/Third_Party/FreeRTOS/Source/timers.c **** 	}
 451:Middlewares/Third_Party/FreeRTOS/Source/timers.c **** 	else
 452:Middlewares/Third_Party/FreeRTOS/Source/timers.c **** 	{
 453:Middlewares/Third_Party/FreeRTOS/Source/timers.c **** 		mtCOVERAGE_TEST_MARKER();
 454:Middlewares/Third_Party/FreeRTOS/Source/timers.c **** 	}
 455:Middlewares/Third_Party/FreeRTOS/Source/timers.c **** 
 456:Middlewares/Third_Party/FreeRTOS/Source/timers.c **** 	return xReturn;
 457:Middlewares/Third_Party/FreeRTOS/Source/timers.c **** }
 458:Middlewares/Third_Party/FreeRTOS/Source/timers.c **** /*-----------------------------------------------------------*/
 459:Middlewares/Third_Party/FreeRTOS/Source/timers.c **** 
 460:Middlewares/Third_Party/FreeRTOS/Source/timers.c **** TaskHandle_t xTimerGetTimerDaemonTaskHandle( void )
 461:Middlewares/Third_Party/FreeRTOS/Source/timers.c **** {
 462:Middlewares/Third_Party/FreeRTOS/Source/timers.c **** 	/* If xTimerGetTimerDaemonTaskHandle() is called before the scheduler has been
 463:Middlewares/Third_Party/FreeRTOS/Source/timers.c **** 	started, then xTimerTaskHandle will be NULL. */
 464:Middlewares/Third_Party/FreeRTOS/Source/timers.c **** 	configASSERT( ( xTimerTaskHandle != NULL ) );
 465:Middlewares/Third_Party/FreeRTOS/Source/timers.c **** 	return xTimerTaskHandle;
 466:Middlewares/Third_Party/FreeRTOS/Source/timers.c **** }
 467:Middlewares/Third_Party/FreeRTOS/Source/timers.c **** /*-----------------------------------------------------------*/
 468:Middlewares/Third_Party/FreeRTOS/Source/timers.c **** 
 469:Middlewares/Third_Party/FreeRTOS/Source/timers.c **** TickType_t xTimerGetPeriod( TimerHandle_t xTimer )
 470:Middlewares/Third_Party/FreeRTOS/Source/timers.c **** {
 471:Middlewares/Third_Party/FreeRTOS/Source/timers.c **** Timer_t *pxTimer = ( Timer_t * ) xTimer;
 472:Middlewares/Third_Party/FreeRTOS/Source/timers.c **** 
 473:Middlewares/Third_Party/FreeRTOS/Source/timers.c **** 	configASSERT( xTimer );
 474:Middlewares/Third_Party/FreeRTOS/Source/timers.c **** 	return pxTimer->xTimerPeriodInTicks;
 475:Middlewares/Third_Party/FreeRTOS/Source/timers.c **** }
 476:Middlewares/Third_Party/FreeRTOS/Source/timers.c **** /*-----------------------------------------------------------*/
 477:Middlewares/Third_Party/FreeRTOS/Source/timers.c **** 
 478:Middlewares/Third_Party/FreeRTOS/Source/timers.c **** TickType_t xTimerGetExpiryTime( TimerHandle_t xTimer )
 479:Middlewares/Third_Party/FreeRTOS/Source/timers.c **** {
 480:Middlewares/Third_Party/FreeRTOS/Source/timers.c **** Timer_t * pxTimer = ( Timer_t * ) xTimer;
 481:Middlewares/Third_Party/FreeRTOS/Source/timers.c **** TickType_t xReturn;
 482:Middlewares/Third_Party/FreeRTOS/Source/timers.c **** 
 483:Middlewares/Third_Party/FreeRTOS/Source/timers.c **** 	configASSERT( xTimer );
 484:Middlewares/Third_Party/FreeRTOS/Source/timers.c **** 	xReturn = listGET_LIST_ITEM_VALUE( &( pxTimer->xTimerListItem ) );
 485:Middlewares/Third_Party/FreeRTOS/Source/timers.c **** 	return xReturn;
 486:Middlewares/Third_Party/FreeRTOS/Source/timers.c **** }
ARM GAS  C:\Users\gx\AppData\Local\Temp\ccYrhkVs.s 			page 10


 487:Middlewares/Third_Party/FreeRTOS/Source/timers.c **** /*-----------------------------------------------------------*/
 488:Middlewares/Third_Party/FreeRTOS/Source/timers.c **** 
 489:Middlewares/Third_Party/FreeRTOS/Source/timers.c **** const char * pcTimerGetName( TimerHandle_t xTimer ) /*lint !e971 Unqualified char types are allowed
 490:Middlewares/Third_Party/FreeRTOS/Source/timers.c **** {
 491:Middlewares/Third_Party/FreeRTOS/Source/timers.c **** Timer_t *pxTimer = ( Timer_t * ) xTimer;
 492:Middlewares/Third_Party/FreeRTOS/Source/timers.c **** 
 493:Middlewares/Third_Party/FreeRTOS/Source/timers.c **** 	configASSERT( xTimer );
 494:Middlewares/Third_Party/FreeRTOS/Source/timers.c **** 	return pxTimer->pcTimerName;
 495:Middlewares/Third_Party/FreeRTOS/Source/timers.c **** }
 496:Middlewares/Third_Party/FreeRTOS/Source/timers.c **** /*-----------------------------------------------------------*/
 497:Middlewares/Third_Party/FreeRTOS/Source/timers.c **** 
 498:Middlewares/Third_Party/FreeRTOS/Source/timers.c **** static void prvProcessExpiredTimer( const TickType_t xNextExpireTime, const TickType_t xTimeNow )
 499:Middlewares/Third_Party/FreeRTOS/Source/timers.c **** {
 500:Middlewares/Third_Party/FreeRTOS/Source/timers.c **** BaseType_t xResult;
 501:Middlewares/Third_Party/FreeRTOS/Source/timers.c **** Timer_t * const pxTimer = ( Timer_t * ) listGET_OWNER_OF_HEAD_ENTRY( pxCurrentTimerList );
 502:Middlewares/Third_Party/FreeRTOS/Source/timers.c **** 
 503:Middlewares/Third_Party/FreeRTOS/Source/timers.c **** 	/* Remove the timer from the list of active timers.  A check has already
 504:Middlewares/Third_Party/FreeRTOS/Source/timers.c **** 	been performed to ensure the list is not empty. */
 505:Middlewares/Third_Party/FreeRTOS/Source/timers.c **** 	( void ) uxListRemove( &( pxTimer->xTimerListItem ) );
 506:Middlewares/Third_Party/FreeRTOS/Source/timers.c **** 	traceTIMER_EXPIRED( pxTimer );
 507:Middlewares/Third_Party/FreeRTOS/Source/timers.c **** 
 508:Middlewares/Third_Party/FreeRTOS/Source/timers.c **** 	/* If the timer is an auto reload timer then calculate the next
 509:Middlewares/Third_Party/FreeRTOS/Source/timers.c **** 	expiry time and re-insert the timer in the list of active timers. */
 510:Middlewares/Third_Party/FreeRTOS/Source/timers.c **** 	if( pxTimer->uxAutoReload == ( UBaseType_t ) pdTRUE )
 511:Middlewares/Third_Party/FreeRTOS/Source/timers.c **** 	{
 512:Middlewares/Third_Party/FreeRTOS/Source/timers.c **** 		/* The timer is inserted into a list using a time relative to anything
 513:Middlewares/Third_Party/FreeRTOS/Source/timers.c **** 		other than the current time.  It will therefore be inserted into the
 514:Middlewares/Third_Party/FreeRTOS/Source/timers.c **** 		correct list relative to the time this task thinks it is now. */
 515:Middlewares/Third_Party/FreeRTOS/Source/timers.c **** 		if( prvInsertTimerInActiveList( pxTimer, ( xNextExpireTime + pxTimer->xTimerPeriodInTicks ), xTim
 516:Middlewares/Third_Party/FreeRTOS/Source/timers.c **** 		{
 517:Middlewares/Third_Party/FreeRTOS/Source/timers.c **** 			/* The timer expired before it was added to the active timer
 518:Middlewares/Third_Party/FreeRTOS/Source/timers.c **** 			list.  Reload it now.  */
 519:Middlewares/Third_Party/FreeRTOS/Source/timers.c **** 			xResult = xTimerGenericCommand( pxTimer, tmrCOMMAND_START_DONT_TRACE, xNextExpireTime, NULL, tmr
 520:Middlewares/Third_Party/FreeRTOS/Source/timers.c **** 			configASSERT( xResult );
 521:Middlewares/Third_Party/FreeRTOS/Source/timers.c **** 			( void ) xResult;
 522:Middlewares/Third_Party/FreeRTOS/Source/timers.c **** 		}
 523:Middlewares/Third_Party/FreeRTOS/Source/timers.c **** 		else
 524:Middlewares/Third_Party/FreeRTOS/Source/timers.c **** 		{
 525:Middlewares/Third_Party/FreeRTOS/Source/timers.c **** 			mtCOVERAGE_TEST_MARKER();
 526:Middlewares/Third_Party/FreeRTOS/Source/timers.c **** 		}
 527:Middlewares/Third_Party/FreeRTOS/Source/timers.c **** 	}
 528:Middlewares/Third_Party/FreeRTOS/Source/timers.c **** 	else
 529:Middlewares/Third_Party/FreeRTOS/Source/timers.c **** 	{
 530:Middlewares/Third_Party/FreeRTOS/Source/timers.c **** 		mtCOVERAGE_TEST_MARKER();
 531:Middlewares/Third_Party/FreeRTOS/Source/timers.c **** 	}
 532:Middlewares/Third_Party/FreeRTOS/Source/timers.c **** 
 533:Middlewares/Third_Party/FreeRTOS/Source/timers.c **** 	/* Call the timer callback. */
 534:Middlewares/Third_Party/FreeRTOS/Source/timers.c **** 	pxTimer->pxCallbackFunction( ( TimerHandle_t ) pxTimer );
 535:Middlewares/Third_Party/FreeRTOS/Source/timers.c **** }
 536:Middlewares/Third_Party/FreeRTOS/Source/timers.c **** /*-----------------------------------------------------------*/
 537:Middlewares/Third_Party/FreeRTOS/Source/timers.c **** 
 538:Middlewares/Third_Party/FreeRTOS/Source/timers.c **** static void prvTimerTask( void *pvParameters )
 539:Middlewares/Third_Party/FreeRTOS/Source/timers.c **** {
 540:Middlewares/Third_Party/FreeRTOS/Source/timers.c **** TickType_t xNextExpireTime;
 541:Middlewares/Third_Party/FreeRTOS/Source/timers.c **** BaseType_t xListWasEmpty;
 542:Middlewares/Third_Party/FreeRTOS/Source/timers.c **** 
 543:Middlewares/Third_Party/FreeRTOS/Source/timers.c **** 	/* Just to avoid compiler warnings. */
ARM GAS  C:\Users\gx\AppData\Local\Temp\ccYrhkVs.s 			page 11


 544:Middlewares/Third_Party/FreeRTOS/Source/timers.c **** 	( void ) pvParameters;
 545:Middlewares/Third_Party/FreeRTOS/Source/timers.c **** 
 546:Middlewares/Third_Party/FreeRTOS/Source/timers.c **** 	#if( configUSE_DAEMON_TASK_STARTUP_HOOK == 1 )
 547:Middlewares/Third_Party/FreeRTOS/Source/timers.c **** 	{
 548:Middlewares/Third_Party/FreeRTOS/Source/timers.c **** 		extern void vApplicationDaemonTaskStartupHook( void );
 549:Middlewares/Third_Party/FreeRTOS/Source/timers.c **** 
 550:Middlewares/Third_Party/FreeRTOS/Source/timers.c **** 		/* Allow the application writer to execute some code in the context of
 551:Middlewares/Third_Party/FreeRTOS/Source/timers.c **** 		this task at the point the task starts executing.  This is useful if the
 552:Middlewares/Third_Party/FreeRTOS/Source/timers.c **** 		application includes initialisation code that would benefit from
 553:Middlewares/Third_Party/FreeRTOS/Source/timers.c **** 		executing after the scheduler has been started. */
 554:Middlewares/Third_Party/FreeRTOS/Source/timers.c **** 		vApplicationDaemonTaskStartupHook();
 555:Middlewares/Third_Party/FreeRTOS/Source/timers.c **** 	}
 556:Middlewares/Third_Party/FreeRTOS/Source/timers.c **** 	#endif /* configUSE_DAEMON_TASK_STARTUP_HOOK */
 557:Middlewares/Third_Party/FreeRTOS/Source/timers.c **** 
 558:Middlewares/Third_Party/FreeRTOS/Source/timers.c **** 	for( ;; )
 559:Middlewares/Third_Party/FreeRTOS/Source/timers.c **** 	{
 560:Middlewares/Third_Party/FreeRTOS/Source/timers.c **** 		/* Query the timers list to see if it contains any timers, and if so,
 561:Middlewares/Third_Party/FreeRTOS/Source/timers.c **** 		obtain the time at which the next timer will expire. */
 562:Middlewares/Third_Party/FreeRTOS/Source/timers.c **** 		xNextExpireTime = prvGetNextExpireTime( &xListWasEmpty );
 563:Middlewares/Third_Party/FreeRTOS/Source/timers.c **** 
 564:Middlewares/Third_Party/FreeRTOS/Source/timers.c **** 		/* If a timer has expired, process it.  Otherwise, block this task
 565:Middlewares/Third_Party/FreeRTOS/Source/timers.c **** 		until either a timer does expire, or a command is received. */
 566:Middlewares/Third_Party/FreeRTOS/Source/timers.c **** 		prvProcessTimerOrBlockTask( xNextExpireTime, xListWasEmpty );
 567:Middlewares/Third_Party/FreeRTOS/Source/timers.c **** 
 568:Middlewares/Third_Party/FreeRTOS/Source/timers.c **** 		/* Empty the command queue. */
 569:Middlewares/Third_Party/FreeRTOS/Source/timers.c **** 		prvProcessReceivedCommands();
 570:Middlewares/Third_Party/FreeRTOS/Source/timers.c **** 	}
 571:Middlewares/Third_Party/FreeRTOS/Source/timers.c **** }
 572:Middlewares/Third_Party/FreeRTOS/Source/timers.c **** /*-----------------------------------------------------------*/
 573:Middlewares/Third_Party/FreeRTOS/Source/timers.c **** 
 574:Middlewares/Third_Party/FreeRTOS/Source/timers.c **** static void prvProcessTimerOrBlockTask( const TickType_t xNextExpireTime, BaseType_t xListWasEmpty 
 575:Middlewares/Third_Party/FreeRTOS/Source/timers.c **** {
 576:Middlewares/Third_Party/FreeRTOS/Source/timers.c **** TickType_t xTimeNow;
 577:Middlewares/Third_Party/FreeRTOS/Source/timers.c **** BaseType_t xTimerListsWereSwitched;
 578:Middlewares/Third_Party/FreeRTOS/Source/timers.c **** 
 579:Middlewares/Third_Party/FreeRTOS/Source/timers.c **** 	vTaskSuspendAll();
 580:Middlewares/Third_Party/FreeRTOS/Source/timers.c **** 	{
 581:Middlewares/Third_Party/FreeRTOS/Source/timers.c **** 		/* Obtain the time now to make an assessment as to whether the timer
 582:Middlewares/Third_Party/FreeRTOS/Source/timers.c **** 		has expired or not.  If obtaining the time causes the lists to switch
 583:Middlewares/Third_Party/FreeRTOS/Source/timers.c **** 		then don't process this timer as any timers that remained in the list
 584:Middlewares/Third_Party/FreeRTOS/Source/timers.c **** 		when the lists were switched will have been processed within the
 585:Middlewares/Third_Party/FreeRTOS/Source/timers.c **** 		prvSampleTimeNow() function. */
 586:Middlewares/Third_Party/FreeRTOS/Source/timers.c **** 		xTimeNow = prvSampleTimeNow( &xTimerListsWereSwitched );
 587:Middlewares/Third_Party/FreeRTOS/Source/timers.c **** 		if( xTimerListsWereSwitched == pdFALSE )
 588:Middlewares/Third_Party/FreeRTOS/Source/timers.c **** 		{
 589:Middlewares/Third_Party/FreeRTOS/Source/timers.c **** 			/* The tick count has not overflowed, has the timer expired? */
 590:Middlewares/Third_Party/FreeRTOS/Source/timers.c **** 			if( ( xListWasEmpty == pdFALSE ) && ( xNextExpireTime <= xTimeNow ) )
 591:Middlewares/Third_Party/FreeRTOS/Source/timers.c **** 			{
 592:Middlewares/Third_Party/FreeRTOS/Source/timers.c **** 				( void ) xTaskResumeAll();
 593:Middlewares/Third_Party/FreeRTOS/Source/timers.c **** 				prvProcessExpiredTimer( xNextExpireTime, xTimeNow );
 594:Middlewares/Third_Party/FreeRTOS/Source/timers.c **** 			}
 595:Middlewares/Third_Party/FreeRTOS/Source/timers.c **** 			else
 596:Middlewares/Third_Party/FreeRTOS/Source/timers.c **** 			{
 597:Middlewares/Third_Party/FreeRTOS/Source/timers.c **** 				/* The tick count has not overflowed, and the next expire
 598:Middlewares/Third_Party/FreeRTOS/Source/timers.c **** 				time has not been reached yet.  This task should therefore
 599:Middlewares/Third_Party/FreeRTOS/Source/timers.c **** 				block to wait for the next expire time or a command to be
 600:Middlewares/Third_Party/FreeRTOS/Source/timers.c **** 				received - whichever comes first.  The following line cannot
ARM GAS  C:\Users\gx\AppData\Local\Temp\ccYrhkVs.s 			page 12


 601:Middlewares/Third_Party/FreeRTOS/Source/timers.c **** 				be reached unless xNextExpireTime > xTimeNow, except in the
 602:Middlewares/Third_Party/FreeRTOS/Source/timers.c **** 				case when the current timer list is empty. */
 603:Middlewares/Third_Party/FreeRTOS/Source/timers.c **** 				if( xListWasEmpty != pdFALSE )
 604:Middlewares/Third_Party/FreeRTOS/Source/timers.c **** 				{
 605:Middlewares/Third_Party/FreeRTOS/Source/timers.c **** 					/* The current timer list is empty - is the overflow list
 606:Middlewares/Third_Party/FreeRTOS/Source/timers.c **** 					also empty? */
 607:Middlewares/Third_Party/FreeRTOS/Source/timers.c **** 					xListWasEmpty = listLIST_IS_EMPTY( pxOverflowTimerList );
 608:Middlewares/Third_Party/FreeRTOS/Source/timers.c **** 				}
 609:Middlewares/Third_Party/FreeRTOS/Source/timers.c **** 
 610:Middlewares/Third_Party/FreeRTOS/Source/timers.c **** 				vQueueWaitForMessageRestricted( xTimerQueue, ( xNextExpireTime - xTimeNow ), xListWasEmpty );
 611:Middlewares/Third_Party/FreeRTOS/Source/timers.c **** 
 612:Middlewares/Third_Party/FreeRTOS/Source/timers.c **** 				if( xTaskResumeAll() == pdFALSE )
 613:Middlewares/Third_Party/FreeRTOS/Source/timers.c **** 				{
 614:Middlewares/Third_Party/FreeRTOS/Source/timers.c **** 					/* Yield to wait for either a command to arrive, or the
 615:Middlewares/Third_Party/FreeRTOS/Source/timers.c **** 					block time to expire.  If a command arrived between the
 616:Middlewares/Third_Party/FreeRTOS/Source/timers.c **** 					critical section being exited and this yield then the yield
 617:Middlewares/Third_Party/FreeRTOS/Source/timers.c **** 					will not cause the task to block. */
 618:Middlewares/Third_Party/FreeRTOS/Source/timers.c **** 					portYIELD_WITHIN_API();
 619:Middlewares/Third_Party/FreeRTOS/Source/timers.c **** 				}
 620:Middlewares/Third_Party/FreeRTOS/Source/timers.c **** 				else
 621:Middlewares/Third_Party/FreeRTOS/Source/timers.c **** 				{
 622:Middlewares/Third_Party/FreeRTOS/Source/timers.c **** 					mtCOVERAGE_TEST_MARKER();
 623:Middlewares/Third_Party/FreeRTOS/Source/timers.c **** 				}
 624:Middlewares/Third_Party/FreeRTOS/Source/timers.c **** 			}
 625:Middlewares/Third_Party/FreeRTOS/Source/timers.c **** 		}
 626:Middlewares/Third_Party/FreeRTOS/Source/timers.c **** 		else
 627:Middlewares/Third_Party/FreeRTOS/Source/timers.c **** 		{
 628:Middlewares/Third_Party/FreeRTOS/Source/timers.c **** 			( void ) xTaskResumeAll();
 629:Middlewares/Third_Party/FreeRTOS/Source/timers.c **** 		}
 630:Middlewares/Third_Party/FreeRTOS/Source/timers.c **** 	}
 631:Middlewares/Third_Party/FreeRTOS/Source/timers.c **** }
 632:Middlewares/Third_Party/FreeRTOS/Source/timers.c **** /*-----------------------------------------------------------*/
 633:Middlewares/Third_Party/FreeRTOS/Source/timers.c **** 
 634:Middlewares/Third_Party/FreeRTOS/Source/timers.c **** static TickType_t prvGetNextExpireTime( BaseType_t * const pxListWasEmpty )
 635:Middlewares/Third_Party/FreeRTOS/Source/timers.c **** {
  29              		.loc 1 635 1 view -0
  30              		.cfi_startproc
  31              		@ args = 0, pretend = 0, frame = 0
  32              		@ frame_needed = 0, uses_anonymous_args = 0
  33              		@ link register save eliminated.
 636:Middlewares/Third_Party/FreeRTOS/Source/timers.c **** TickType_t xNextExpireTime;
  34              		.loc 1 636 1 view .LVU1
 637:Middlewares/Third_Party/FreeRTOS/Source/timers.c **** 
 638:Middlewares/Third_Party/FreeRTOS/Source/timers.c **** 	/* Timers are listed in expiry time order, with the head of the list
 639:Middlewares/Third_Party/FreeRTOS/Source/timers.c **** 	referencing the task that will expire first.  Obtain the time at which
 640:Middlewares/Third_Party/FreeRTOS/Source/timers.c **** 	the timer with the nearest expiry time will expire.  If there are no
 641:Middlewares/Third_Party/FreeRTOS/Source/timers.c **** 	active timers then just set the next expire time to 0.  That will cause
 642:Middlewares/Third_Party/FreeRTOS/Source/timers.c **** 	this task to unblock when the tick count overflows, at which point the
 643:Middlewares/Third_Party/FreeRTOS/Source/timers.c **** 	timer lists will be switched and the next expiry time can be
 644:Middlewares/Third_Party/FreeRTOS/Source/timers.c **** 	re-assessed.  */
 645:Middlewares/Third_Party/FreeRTOS/Source/timers.c **** 	*pxListWasEmpty = listLIST_IS_EMPTY( pxCurrentTimerList );
  35              		.loc 1 645 2 view .LVU2
  36              		.loc 1 645 20 is_stmt 0 view .LVU3
  37 0000 064B     		ldr	r3, .L4
  38 0002 1A68     		ldr	r2, [r3]
  39 0004 1368     		ldr	r3, [r2]
  40 0006 B3FA83F3 		clz	r3, r3
ARM GAS  C:\Users\gx\AppData\Local\Temp\ccYrhkVs.s 			page 13


  41 000a 5B09     		lsrs	r3, r3, #5
  42              		.loc 1 645 18 view .LVU4
  43 000c 0360     		str	r3, [r0]
 646:Middlewares/Third_Party/FreeRTOS/Source/timers.c **** 	if( *pxListWasEmpty == pdFALSE )
  44              		.loc 1 646 2 is_stmt 1 view .LVU5
  45              		.loc 1 646 4 is_stmt 0 view .LVU6
  46 000e 13B9     		cbnz	r3, .L3
 647:Middlewares/Third_Party/FreeRTOS/Source/timers.c **** 	{
 648:Middlewares/Third_Party/FreeRTOS/Source/timers.c **** 		xNextExpireTime = listGET_ITEM_VALUE_OF_HEAD_ENTRY( pxCurrentTimerList );
  47              		.loc 1 648 3 is_stmt 1 view .LVU7
  48              		.loc 1 648 21 is_stmt 0 view .LVU8
  49 0010 D368     		ldr	r3, [r2, #12]
  50              		.loc 1 648 19 view .LVU9
  51 0012 1868     		ldr	r0, [r3]
  52              	.LVL1:
  53              		.loc 1 648 19 view .LVU10
  54 0014 7047     		bx	lr
  55              	.LVL2:
  56              	.L3:
 649:Middlewares/Third_Party/FreeRTOS/Source/timers.c **** 	}
 650:Middlewares/Third_Party/FreeRTOS/Source/timers.c **** 	else
 651:Middlewares/Third_Party/FreeRTOS/Source/timers.c **** 	{
 652:Middlewares/Third_Party/FreeRTOS/Source/timers.c **** 		/* Ensure the task unblocks when the tick count rolls over. */
 653:Middlewares/Third_Party/FreeRTOS/Source/timers.c **** 		xNextExpireTime = ( TickType_t ) 0U;
  57              		.loc 1 653 19 view .LVU11
  58 0016 0020     		movs	r0, #0
  59              	.LVL3:
 654:Middlewares/Third_Party/FreeRTOS/Source/timers.c **** 	}
 655:Middlewares/Third_Party/FreeRTOS/Source/timers.c **** 
 656:Middlewares/Third_Party/FreeRTOS/Source/timers.c **** 	return xNextExpireTime;
  60              		.loc 1 656 2 is_stmt 1 view .LVU12
 657:Middlewares/Third_Party/FreeRTOS/Source/timers.c **** }
  61              		.loc 1 657 1 is_stmt 0 view .LVU13
  62 0018 7047     		bx	lr
  63              	.L5:
  64 001a 00BF     		.align	2
  65              	.L4:
  66 001c 00000000 		.word	.LANCHOR0
  67              		.cfi_endproc
  68              	.LFE16:
  70              		.section	.text.prvInsertTimerInActiveList,"ax",%progbits
  71              		.align	1
  72              		.syntax unified
  73              		.thumb
  74              		.thumb_func
  75              		.fpu fpv4-sp-d16
  77              	prvInsertTimerInActiveList:
  78              	.LVL4:
  79              	.LFB18:
 658:Middlewares/Third_Party/FreeRTOS/Source/timers.c **** /*-----------------------------------------------------------*/
 659:Middlewares/Third_Party/FreeRTOS/Source/timers.c **** 
 660:Middlewares/Third_Party/FreeRTOS/Source/timers.c **** static TickType_t prvSampleTimeNow( BaseType_t * const pxTimerListsWereSwitched )
 661:Middlewares/Third_Party/FreeRTOS/Source/timers.c **** {
 662:Middlewares/Third_Party/FreeRTOS/Source/timers.c **** TickType_t xTimeNow;
 663:Middlewares/Third_Party/FreeRTOS/Source/timers.c **** PRIVILEGED_INITIALIZED_DATA static TickType_t xLastTime = ( TickType_t ) 0U; /*lint !e956 Variable 
 664:Middlewares/Third_Party/FreeRTOS/Source/timers.c **** 
 665:Middlewares/Third_Party/FreeRTOS/Source/timers.c **** 	xTimeNow = xTaskGetTickCount();
ARM GAS  C:\Users\gx\AppData\Local\Temp\ccYrhkVs.s 			page 14


 666:Middlewares/Third_Party/FreeRTOS/Source/timers.c **** 
 667:Middlewares/Third_Party/FreeRTOS/Source/timers.c **** 	if( xTimeNow < xLastTime )
 668:Middlewares/Third_Party/FreeRTOS/Source/timers.c **** 	{
 669:Middlewares/Third_Party/FreeRTOS/Source/timers.c **** 		prvSwitchTimerLists();
 670:Middlewares/Third_Party/FreeRTOS/Source/timers.c **** 		*pxTimerListsWereSwitched = pdTRUE;
 671:Middlewares/Third_Party/FreeRTOS/Source/timers.c **** 	}
 672:Middlewares/Third_Party/FreeRTOS/Source/timers.c **** 	else
 673:Middlewares/Third_Party/FreeRTOS/Source/timers.c **** 	{
 674:Middlewares/Third_Party/FreeRTOS/Source/timers.c **** 		*pxTimerListsWereSwitched = pdFALSE;
 675:Middlewares/Third_Party/FreeRTOS/Source/timers.c **** 	}
 676:Middlewares/Third_Party/FreeRTOS/Source/timers.c **** 
 677:Middlewares/Third_Party/FreeRTOS/Source/timers.c **** 	xLastTime = xTimeNow;
 678:Middlewares/Third_Party/FreeRTOS/Source/timers.c **** 
 679:Middlewares/Third_Party/FreeRTOS/Source/timers.c **** 	return xTimeNow;
 680:Middlewares/Third_Party/FreeRTOS/Source/timers.c **** }
 681:Middlewares/Third_Party/FreeRTOS/Source/timers.c **** /*-----------------------------------------------------------*/
 682:Middlewares/Third_Party/FreeRTOS/Source/timers.c **** 
 683:Middlewares/Third_Party/FreeRTOS/Source/timers.c **** static BaseType_t prvInsertTimerInActiveList( Timer_t * const pxTimer, const TickType_t xNextExpiry
 684:Middlewares/Third_Party/FreeRTOS/Source/timers.c **** {
  80              		.loc 1 684 1 is_stmt 1 view -0
  81              		.cfi_startproc
  82              		@ args = 0, pretend = 0, frame = 0
  83              		@ frame_needed = 0, uses_anonymous_args = 0
  84              		.loc 1 684 1 is_stmt 0 view .LVU15
  85 0000 08B5     		push	{r3, lr}
  86              	.LCFI0:
  87              		.cfi_def_cfa_offset 8
  88              		.cfi_offset 3, -8
  89              		.cfi_offset 14, -4
 685:Middlewares/Third_Party/FreeRTOS/Source/timers.c **** BaseType_t xProcessTimerNow = pdFALSE;
  90              		.loc 1 685 1 is_stmt 1 view .LVU16
  91              	.LVL5:
 686:Middlewares/Third_Party/FreeRTOS/Source/timers.c **** 
 687:Middlewares/Third_Party/FreeRTOS/Source/timers.c **** 	listSET_LIST_ITEM_VALUE( &( pxTimer->xTimerListItem ), xNextExpiryTime );
  92              		.loc 1 687 2 view .LVU17
  93 0002 4160     		str	r1, [r0, #4]
 688:Middlewares/Third_Party/FreeRTOS/Source/timers.c **** 	listSET_LIST_ITEM_OWNER( &( pxTimer->xTimerListItem ), pxTimer );
  94              		.loc 1 688 2 view .LVU18
  95 0004 0061     		str	r0, [r0, #16]
 689:Middlewares/Third_Party/FreeRTOS/Source/timers.c **** 
 690:Middlewares/Third_Party/FreeRTOS/Source/timers.c **** 	if( xNextExpiryTime <= xTimeNow )
  96              		.loc 1 690 2 view .LVU19
  97              		.loc 1 690 4 is_stmt 0 view .LVU20
  98 0006 9142     		cmp	r1, r2
  99 0008 0CD8     		bhi	.L7
 691:Middlewares/Third_Party/FreeRTOS/Source/timers.c **** 	{
 692:Middlewares/Third_Party/FreeRTOS/Source/timers.c **** 		/* Has the expiry time elapsed between the command to start/reset a
 693:Middlewares/Third_Party/FreeRTOS/Source/timers.c **** 		timer was issued, and the time the command was processed? */
 694:Middlewares/Third_Party/FreeRTOS/Source/timers.c **** 		if( ( ( TickType_t ) ( xTimeNow - xCommandTime ) ) >= pxTimer->xTimerPeriodInTicks ) /*lint !e961
 100              		.loc 1 694 3 is_stmt 1 view .LVU21
 101              		.loc 1 694 9 is_stmt 0 view .LVU22
 102 000a D21A     		subs	r2, r2, r3
 103              	.LVL6:
 104              		.loc 1 694 64 view .LVU23
 105 000c 8369     		ldr	r3, [r0, #24]
 106              	.LVL7:
 107              		.loc 1 694 5 view .LVU24
ARM GAS  C:\Users\gx\AppData\Local\Temp\ccYrhkVs.s 			page 15


 108 000e 9A42     		cmp	r2, r3
 109 0010 01D3     		bcc	.L13
 695:Middlewares/Third_Party/FreeRTOS/Source/timers.c **** 		{
 696:Middlewares/Third_Party/FreeRTOS/Source/timers.c **** 			/* The time between a command being issued and the command being
 697:Middlewares/Third_Party/FreeRTOS/Source/timers.c **** 			processed actually exceeds the timers period.  */
 698:Middlewares/Third_Party/FreeRTOS/Source/timers.c **** 			xProcessTimerNow = pdTRUE;
 110              		.loc 1 698 21 view .LVU25
 111 0012 0120     		movs	r0, #1
 112              	.LVL8:
 113              	.L6:
 699:Middlewares/Third_Party/FreeRTOS/Source/timers.c **** 		}
 700:Middlewares/Third_Party/FreeRTOS/Source/timers.c **** 		else
 701:Middlewares/Third_Party/FreeRTOS/Source/timers.c **** 		{
 702:Middlewares/Third_Party/FreeRTOS/Source/timers.c **** 			vListInsert( pxOverflowTimerList, &( pxTimer->xTimerListItem ) );
 703:Middlewares/Third_Party/FreeRTOS/Source/timers.c **** 		}
 704:Middlewares/Third_Party/FreeRTOS/Source/timers.c **** 	}
 705:Middlewares/Third_Party/FreeRTOS/Source/timers.c **** 	else
 706:Middlewares/Third_Party/FreeRTOS/Source/timers.c **** 	{
 707:Middlewares/Third_Party/FreeRTOS/Source/timers.c **** 		if( ( xTimeNow < xCommandTime ) && ( xNextExpiryTime >= xCommandTime ) )
 708:Middlewares/Third_Party/FreeRTOS/Source/timers.c **** 		{
 709:Middlewares/Third_Party/FreeRTOS/Source/timers.c **** 			/* If, since the command was issued, the tick count has overflowed
 710:Middlewares/Third_Party/FreeRTOS/Source/timers.c **** 			but the expiry time has not, then the timer must have already passed
 711:Middlewares/Third_Party/FreeRTOS/Source/timers.c **** 			its expiry time and should be processed immediately. */
 712:Middlewares/Third_Party/FreeRTOS/Source/timers.c **** 			xProcessTimerNow = pdTRUE;
 713:Middlewares/Third_Party/FreeRTOS/Source/timers.c **** 		}
 714:Middlewares/Third_Party/FreeRTOS/Source/timers.c **** 		else
 715:Middlewares/Third_Party/FreeRTOS/Source/timers.c **** 		{
 716:Middlewares/Third_Party/FreeRTOS/Source/timers.c **** 			vListInsert( pxCurrentTimerList, &( pxTimer->xTimerListItem ) );
 717:Middlewares/Third_Party/FreeRTOS/Source/timers.c **** 		}
 718:Middlewares/Third_Party/FreeRTOS/Source/timers.c **** 	}
 719:Middlewares/Third_Party/FreeRTOS/Source/timers.c **** 
 720:Middlewares/Third_Party/FreeRTOS/Source/timers.c **** 	return xProcessTimerNow;
 721:Middlewares/Third_Party/FreeRTOS/Source/timers.c **** }
 114              		.loc 1 721 1 view .LVU26
 115 0014 08BD     		pop	{r3, pc}
 116              	.LVL9:
 117              	.L13:
 702:Middlewares/Third_Party/FreeRTOS/Source/timers.c **** 		}
 118              		.loc 1 702 4 is_stmt 1 view .LVU27
 119 0016 011D     		adds	r1, r0, #4
 120              	.LVL10:
 702:Middlewares/Third_Party/FreeRTOS/Source/timers.c **** 		}
 121              		.loc 1 702 4 is_stmt 0 view .LVU28
 122 0018 094B     		ldr	r3, .L14
 123 001a 1868     		ldr	r0, [r3]
 124              	.LVL11:
 702:Middlewares/Third_Party/FreeRTOS/Source/timers.c **** 		}
 125              		.loc 1 702 4 view .LVU29
 126 001c FFF7FEFF 		bl	vListInsert
 127              	.LVL12:
 685:Middlewares/Third_Party/FreeRTOS/Source/timers.c **** 
 128              		.loc 1 685 12 view .LVU30
 129 0020 0020     		movs	r0, #0
 130 0022 F7E7     		b	.L6
 131              	.LVL13:
 132              	.L7:
 707:Middlewares/Third_Party/FreeRTOS/Source/timers.c **** 		{
ARM GAS  C:\Users\gx\AppData\Local\Temp\ccYrhkVs.s 			page 16


 133              		.loc 1 707 3 is_stmt 1 view .LVU31
 707:Middlewares/Third_Party/FreeRTOS/Source/timers.c **** 		{
 134              		.loc 1 707 5 is_stmt 0 view .LVU32
 135 0024 9A42     		cmp	r2, r3
 136 0026 01D2     		bcs	.L9
 707:Middlewares/Third_Party/FreeRTOS/Source/timers.c **** 		{
 137              		.loc 1 707 35 discriminator 1 view .LVU33
 138 0028 9942     		cmp	r1, r3
 139 002a 06D2     		bcs	.L11
 140              	.L9:
 716:Middlewares/Third_Party/FreeRTOS/Source/timers.c **** 		}
 141              		.loc 1 716 4 is_stmt 1 view .LVU34
 142 002c 011D     		adds	r1, r0, #4
 143              	.LVL14:
 716:Middlewares/Third_Party/FreeRTOS/Source/timers.c **** 		}
 144              		.loc 1 716 4 is_stmt 0 view .LVU35
 145 002e 054B     		ldr	r3, .L14+4
 146              	.LVL15:
 716:Middlewares/Third_Party/FreeRTOS/Source/timers.c **** 		}
 147              		.loc 1 716 4 view .LVU36
 148 0030 1868     		ldr	r0, [r3]
 149              	.LVL16:
 716:Middlewares/Third_Party/FreeRTOS/Source/timers.c **** 		}
 150              		.loc 1 716 4 view .LVU37
 151 0032 FFF7FEFF 		bl	vListInsert
 152              	.LVL17:
 685:Middlewares/Third_Party/FreeRTOS/Source/timers.c **** 
 153              		.loc 1 685 12 view .LVU38
 154 0036 0020     		movs	r0, #0
 155 0038 ECE7     		b	.L6
 156              	.LVL18:
 157              	.L11:
 712:Middlewares/Third_Party/FreeRTOS/Source/timers.c **** 		}
 158              		.loc 1 712 21 view .LVU39
 159 003a 0120     		movs	r0, #1
 160              	.LVL19:
 720:Middlewares/Third_Party/FreeRTOS/Source/timers.c **** }
 161              		.loc 1 720 2 is_stmt 1 view .LVU40
 720:Middlewares/Third_Party/FreeRTOS/Source/timers.c **** }
 162              		.loc 1 720 9 is_stmt 0 view .LVU41
 163 003c EAE7     		b	.L6
 164              	.L15:
 165 003e 00BF     		.align	2
 166              	.L14:
 167 0040 00000000 		.word	.LANCHOR1
 168 0044 00000000 		.word	.LANCHOR0
 169              		.cfi_endproc
 170              	.LFE18:
 172              		.section	.rodata.prvCheckForValidListAndQueue.str1.4,"aMS",%progbits,1
 173              		.align	2
 174              	.LC0:
 175 0000 546D7251 		.ascii	"TmrQ\000"
 175      00
 176              		.section	.text.prvCheckForValidListAndQueue,"ax",%progbits
 177              		.align	1
 178              		.syntax unified
 179              		.thumb
ARM GAS  C:\Users\gx\AppData\Local\Temp\ccYrhkVs.s 			page 17


 180              		.thumb_func
 181              		.fpu fpv4-sp-d16
 183              	prvCheckForValidListAndQueue:
 184              	.LFB21:
 722:Middlewares/Third_Party/FreeRTOS/Source/timers.c **** /*-----------------------------------------------------------*/
 723:Middlewares/Third_Party/FreeRTOS/Source/timers.c **** 
 724:Middlewares/Third_Party/FreeRTOS/Source/timers.c **** static void	prvProcessReceivedCommands( void )
 725:Middlewares/Third_Party/FreeRTOS/Source/timers.c **** {
 726:Middlewares/Third_Party/FreeRTOS/Source/timers.c **** DaemonTaskMessage_t xMessage;
 727:Middlewares/Third_Party/FreeRTOS/Source/timers.c **** Timer_t *pxTimer;
 728:Middlewares/Third_Party/FreeRTOS/Source/timers.c **** BaseType_t xTimerListsWereSwitched, xResult;
 729:Middlewares/Third_Party/FreeRTOS/Source/timers.c **** TickType_t xTimeNow;
 730:Middlewares/Third_Party/FreeRTOS/Source/timers.c **** 
 731:Middlewares/Third_Party/FreeRTOS/Source/timers.c **** 	while( xQueueReceive( xTimerQueue, &xMessage, tmrNO_DELAY ) != pdFAIL ) /*lint !e603 xMessage does
 732:Middlewares/Third_Party/FreeRTOS/Source/timers.c **** 	{
 733:Middlewares/Third_Party/FreeRTOS/Source/timers.c **** 		#if ( INCLUDE_xTimerPendFunctionCall == 1 )
 734:Middlewares/Third_Party/FreeRTOS/Source/timers.c **** 		{
 735:Middlewares/Third_Party/FreeRTOS/Source/timers.c **** 			/* Negative commands are pended function calls rather than timer
 736:Middlewares/Third_Party/FreeRTOS/Source/timers.c **** 			commands. */
 737:Middlewares/Third_Party/FreeRTOS/Source/timers.c **** 			if( xMessage.xMessageID < ( BaseType_t ) 0 )
 738:Middlewares/Third_Party/FreeRTOS/Source/timers.c **** 			{
 739:Middlewares/Third_Party/FreeRTOS/Source/timers.c **** 				const CallbackParameters_t * const pxCallback = &( xMessage.u.xCallbackParameters );
 740:Middlewares/Third_Party/FreeRTOS/Source/timers.c **** 
 741:Middlewares/Third_Party/FreeRTOS/Source/timers.c **** 				/* The timer uses the xCallbackParameters member to request a
 742:Middlewares/Third_Party/FreeRTOS/Source/timers.c **** 				callback be executed.  Check the callback is not NULL. */
 743:Middlewares/Third_Party/FreeRTOS/Source/timers.c **** 				configASSERT( pxCallback );
 744:Middlewares/Third_Party/FreeRTOS/Source/timers.c **** 
 745:Middlewares/Third_Party/FreeRTOS/Source/timers.c **** 				/* Call the function. */
 746:Middlewares/Third_Party/FreeRTOS/Source/timers.c **** 				pxCallback->pxCallbackFunction( pxCallback->pvParameter1, pxCallback->ulParameter2 );
 747:Middlewares/Third_Party/FreeRTOS/Source/timers.c **** 			}
 748:Middlewares/Third_Party/FreeRTOS/Source/timers.c **** 			else
 749:Middlewares/Third_Party/FreeRTOS/Source/timers.c **** 			{
 750:Middlewares/Third_Party/FreeRTOS/Source/timers.c **** 				mtCOVERAGE_TEST_MARKER();
 751:Middlewares/Third_Party/FreeRTOS/Source/timers.c **** 			}
 752:Middlewares/Third_Party/FreeRTOS/Source/timers.c **** 		}
 753:Middlewares/Third_Party/FreeRTOS/Source/timers.c **** 		#endif /* INCLUDE_xTimerPendFunctionCall */
 754:Middlewares/Third_Party/FreeRTOS/Source/timers.c **** 
 755:Middlewares/Third_Party/FreeRTOS/Source/timers.c **** 		/* Commands that are positive are timer commands rather than pended
 756:Middlewares/Third_Party/FreeRTOS/Source/timers.c **** 		function calls. */
 757:Middlewares/Third_Party/FreeRTOS/Source/timers.c **** 		if( xMessage.xMessageID >= ( BaseType_t ) 0 )
 758:Middlewares/Third_Party/FreeRTOS/Source/timers.c **** 		{
 759:Middlewares/Third_Party/FreeRTOS/Source/timers.c **** 			/* The messages uses the xTimerParameters member to work on a
 760:Middlewares/Third_Party/FreeRTOS/Source/timers.c **** 			software timer. */
 761:Middlewares/Third_Party/FreeRTOS/Source/timers.c **** 			pxTimer = xMessage.u.xTimerParameters.pxTimer;
 762:Middlewares/Third_Party/FreeRTOS/Source/timers.c **** 
 763:Middlewares/Third_Party/FreeRTOS/Source/timers.c **** 			if( listIS_CONTAINED_WITHIN( NULL, &( pxTimer->xTimerListItem ) ) == pdFALSE )
 764:Middlewares/Third_Party/FreeRTOS/Source/timers.c **** 			{
 765:Middlewares/Third_Party/FreeRTOS/Source/timers.c **** 				/* The timer is in a list, remove it. */
 766:Middlewares/Third_Party/FreeRTOS/Source/timers.c **** 				( void ) uxListRemove( &( pxTimer->xTimerListItem ) );
 767:Middlewares/Third_Party/FreeRTOS/Source/timers.c **** 			}
 768:Middlewares/Third_Party/FreeRTOS/Source/timers.c **** 			else
 769:Middlewares/Third_Party/FreeRTOS/Source/timers.c **** 			{
 770:Middlewares/Third_Party/FreeRTOS/Source/timers.c **** 				mtCOVERAGE_TEST_MARKER();
 771:Middlewares/Third_Party/FreeRTOS/Source/timers.c **** 			}
 772:Middlewares/Third_Party/FreeRTOS/Source/timers.c **** 
 773:Middlewares/Third_Party/FreeRTOS/Source/timers.c **** 			traceTIMER_COMMAND_RECEIVED( pxTimer, xMessage.xMessageID, xMessage.u.xTimerParameters.xMessageV
 774:Middlewares/Third_Party/FreeRTOS/Source/timers.c **** 
ARM GAS  C:\Users\gx\AppData\Local\Temp\ccYrhkVs.s 			page 18


 775:Middlewares/Third_Party/FreeRTOS/Source/timers.c **** 			/* In this case the xTimerListsWereSwitched parameter is not used, but
 776:Middlewares/Third_Party/FreeRTOS/Source/timers.c **** 			it must be present in the function call.  prvSampleTimeNow() must be
 777:Middlewares/Third_Party/FreeRTOS/Source/timers.c **** 			called after the message is received from xTimerQueue so there is no
 778:Middlewares/Third_Party/FreeRTOS/Source/timers.c **** 			possibility of a higher priority task adding a message to the message
 779:Middlewares/Third_Party/FreeRTOS/Source/timers.c **** 			queue with a time that is ahead of the timer daemon task (because it
 780:Middlewares/Third_Party/FreeRTOS/Source/timers.c **** 			pre-empted the timer daemon task after the xTimeNow value was set). */
 781:Middlewares/Third_Party/FreeRTOS/Source/timers.c **** 			xTimeNow = prvSampleTimeNow( &xTimerListsWereSwitched );
 782:Middlewares/Third_Party/FreeRTOS/Source/timers.c **** 
 783:Middlewares/Third_Party/FreeRTOS/Source/timers.c **** 			switch( xMessage.xMessageID )
 784:Middlewares/Third_Party/FreeRTOS/Source/timers.c **** 			{
 785:Middlewares/Third_Party/FreeRTOS/Source/timers.c **** 				case tmrCOMMAND_START :
 786:Middlewares/Third_Party/FreeRTOS/Source/timers.c **** 			    case tmrCOMMAND_START_FROM_ISR :
 787:Middlewares/Third_Party/FreeRTOS/Source/timers.c **** 			    case tmrCOMMAND_RESET :
 788:Middlewares/Third_Party/FreeRTOS/Source/timers.c **** 			    case tmrCOMMAND_RESET_FROM_ISR :
 789:Middlewares/Third_Party/FreeRTOS/Source/timers.c **** 				case tmrCOMMAND_START_DONT_TRACE :
 790:Middlewares/Third_Party/FreeRTOS/Source/timers.c **** 					/* Start or restart a timer. */
 791:Middlewares/Third_Party/FreeRTOS/Source/timers.c **** 					if( prvInsertTimerInActiveList( pxTimer,  xMessage.u.xTimerParameters.xMessageValue + pxTimer-
 792:Middlewares/Third_Party/FreeRTOS/Source/timers.c **** 					{
 793:Middlewares/Third_Party/FreeRTOS/Source/timers.c **** 						/* The timer expired before it was added to the active
 794:Middlewares/Third_Party/FreeRTOS/Source/timers.c **** 						timer list.  Process it now. */
 795:Middlewares/Third_Party/FreeRTOS/Source/timers.c **** 						pxTimer->pxCallbackFunction( ( TimerHandle_t ) pxTimer );
 796:Middlewares/Third_Party/FreeRTOS/Source/timers.c **** 						traceTIMER_EXPIRED( pxTimer );
 797:Middlewares/Third_Party/FreeRTOS/Source/timers.c **** 
 798:Middlewares/Third_Party/FreeRTOS/Source/timers.c **** 						if( pxTimer->uxAutoReload == ( UBaseType_t ) pdTRUE )
 799:Middlewares/Third_Party/FreeRTOS/Source/timers.c **** 						{
 800:Middlewares/Third_Party/FreeRTOS/Source/timers.c **** 							xResult = xTimerGenericCommand( pxTimer, tmrCOMMAND_START_DONT_TRACE, xMessage.u.xTimerParam
 801:Middlewares/Third_Party/FreeRTOS/Source/timers.c **** 							configASSERT( xResult );
 802:Middlewares/Third_Party/FreeRTOS/Source/timers.c **** 							( void ) xResult;
 803:Middlewares/Third_Party/FreeRTOS/Source/timers.c **** 						}
 804:Middlewares/Third_Party/FreeRTOS/Source/timers.c **** 						else
 805:Middlewares/Third_Party/FreeRTOS/Source/timers.c **** 						{
 806:Middlewares/Third_Party/FreeRTOS/Source/timers.c **** 							mtCOVERAGE_TEST_MARKER();
 807:Middlewares/Third_Party/FreeRTOS/Source/timers.c **** 						}
 808:Middlewares/Third_Party/FreeRTOS/Source/timers.c **** 					}
 809:Middlewares/Third_Party/FreeRTOS/Source/timers.c **** 					else
 810:Middlewares/Third_Party/FreeRTOS/Source/timers.c **** 					{
 811:Middlewares/Third_Party/FreeRTOS/Source/timers.c **** 						mtCOVERAGE_TEST_MARKER();
 812:Middlewares/Third_Party/FreeRTOS/Source/timers.c **** 					}
 813:Middlewares/Third_Party/FreeRTOS/Source/timers.c **** 					break;
 814:Middlewares/Third_Party/FreeRTOS/Source/timers.c **** 
 815:Middlewares/Third_Party/FreeRTOS/Source/timers.c **** 				case tmrCOMMAND_STOP :
 816:Middlewares/Third_Party/FreeRTOS/Source/timers.c **** 				case tmrCOMMAND_STOP_FROM_ISR :
 817:Middlewares/Third_Party/FreeRTOS/Source/timers.c **** 					/* The timer has already been removed from the active list.
 818:Middlewares/Third_Party/FreeRTOS/Source/timers.c **** 					There is nothing to do here. */
 819:Middlewares/Third_Party/FreeRTOS/Source/timers.c **** 					break;
 820:Middlewares/Third_Party/FreeRTOS/Source/timers.c **** 
 821:Middlewares/Third_Party/FreeRTOS/Source/timers.c **** 				case tmrCOMMAND_CHANGE_PERIOD :
 822:Middlewares/Third_Party/FreeRTOS/Source/timers.c **** 				case tmrCOMMAND_CHANGE_PERIOD_FROM_ISR :
 823:Middlewares/Third_Party/FreeRTOS/Source/timers.c **** 					pxTimer->xTimerPeriodInTicks = xMessage.u.xTimerParameters.xMessageValue;
 824:Middlewares/Third_Party/FreeRTOS/Source/timers.c **** 					configASSERT( ( pxTimer->xTimerPeriodInTicks > 0 ) );
 825:Middlewares/Third_Party/FreeRTOS/Source/timers.c **** 
 826:Middlewares/Third_Party/FreeRTOS/Source/timers.c **** 					/* The new period does not really have a reference, and can
 827:Middlewares/Third_Party/FreeRTOS/Source/timers.c **** 					be longer or shorter than the old one.  The command time is
 828:Middlewares/Third_Party/FreeRTOS/Source/timers.c **** 					therefore set to the current time, and as the period cannot
 829:Middlewares/Third_Party/FreeRTOS/Source/timers.c **** 					be zero the next expiry time can only be in the future,
 830:Middlewares/Third_Party/FreeRTOS/Source/timers.c **** 					meaning (unlike for the xTimerStart() case above) there is
 831:Middlewares/Third_Party/FreeRTOS/Source/timers.c **** 					no fail case that needs to be handled here. */
ARM GAS  C:\Users\gx\AppData\Local\Temp\ccYrhkVs.s 			page 19


 832:Middlewares/Third_Party/FreeRTOS/Source/timers.c **** 					( void ) prvInsertTimerInActiveList( pxTimer, ( xTimeNow + pxTimer->xTimerPeriodInTicks ), xTi
 833:Middlewares/Third_Party/FreeRTOS/Source/timers.c **** 					break;
 834:Middlewares/Third_Party/FreeRTOS/Source/timers.c **** 
 835:Middlewares/Third_Party/FreeRTOS/Source/timers.c **** 				case tmrCOMMAND_DELETE :
 836:Middlewares/Third_Party/FreeRTOS/Source/timers.c **** 					/* The timer has already been removed from the active list,
 837:Middlewares/Third_Party/FreeRTOS/Source/timers.c **** 					just free up the memory if the memory was dynamically
 838:Middlewares/Third_Party/FreeRTOS/Source/timers.c **** 					allocated. */
 839:Middlewares/Third_Party/FreeRTOS/Source/timers.c **** 					#if( ( configSUPPORT_DYNAMIC_ALLOCATION == 1 ) && ( configSUPPORT_STATIC_ALLOCATION == 0 ) )
 840:Middlewares/Third_Party/FreeRTOS/Source/timers.c **** 					{
 841:Middlewares/Third_Party/FreeRTOS/Source/timers.c **** 						/* The timer can only have been allocated dynamically -
 842:Middlewares/Third_Party/FreeRTOS/Source/timers.c **** 						free it again. */
 843:Middlewares/Third_Party/FreeRTOS/Source/timers.c **** 						vPortFree( pxTimer );
 844:Middlewares/Third_Party/FreeRTOS/Source/timers.c **** 					}
 845:Middlewares/Third_Party/FreeRTOS/Source/timers.c **** 					#elif( ( configSUPPORT_DYNAMIC_ALLOCATION == 1 ) && ( configSUPPORT_STATIC_ALLOCATION == 1 ) )
 846:Middlewares/Third_Party/FreeRTOS/Source/timers.c **** 					{
 847:Middlewares/Third_Party/FreeRTOS/Source/timers.c **** 						/* The timer could have been allocated statically or
 848:Middlewares/Third_Party/FreeRTOS/Source/timers.c **** 						dynamically, so check before attempting to free the
 849:Middlewares/Third_Party/FreeRTOS/Source/timers.c **** 						memory. */
 850:Middlewares/Third_Party/FreeRTOS/Source/timers.c **** 						if( pxTimer->ucStaticallyAllocated == ( uint8_t ) pdFALSE )
 851:Middlewares/Third_Party/FreeRTOS/Source/timers.c **** 						{
 852:Middlewares/Third_Party/FreeRTOS/Source/timers.c **** 							vPortFree( pxTimer );
 853:Middlewares/Third_Party/FreeRTOS/Source/timers.c **** 						}
 854:Middlewares/Third_Party/FreeRTOS/Source/timers.c **** 						else
 855:Middlewares/Third_Party/FreeRTOS/Source/timers.c **** 						{
 856:Middlewares/Third_Party/FreeRTOS/Source/timers.c **** 							mtCOVERAGE_TEST_MARKER();
 857:Middlewares/Third_Party/FreeRTOS/Source/timers.c **** 						}
 858:Middlewares/Third_Party/FreeRTOS/Source/timers.c **** 					}
 859:Middlewares/Third_Party/FreeRTOS/Source/timers.c **** 					#endif /* configSUPPORT_DYNAMIC_ALLOCATION */
 860:Middlewares/Third_Party/FreeRTOS/Source/timers.c **** 					break;
 861:Middlewares/Third_Party/FreeRTOS/Source/timers.c **** 
 862:Middlewares/Third_Party/FreeRTOS/Source/timers.c **** 				default	:
 863:Middlewares/Third_Party/FreeRTOS/Source/timers.c **** 					/* Don't expect to get here. */
 864:Middlewares/Third_Party/FreeRTOS/Source/timers.c **** 					break;
 865:Middlewares/Third_Party/FreeRTOS/Source/timers.c **** 			}
 866:Middlewares/Third_Party/FreeRTOS/Source/timers.c **** 		}
 867:Middlewares/Third_Party/FreeRTOS/Source/timers.c **** 	}
 868:Middlewares/Third_Party/FreeRTOS/Source/timers.c **** }
 869:Middlewares/Third_Party/FreeRTOS/Source/timers.c **** /*-----------------------------------------------------------*/
 870:Middlewares/Third_Party/FreeRTOS/Source/timers.c **** 
 871:Middlewares/Third_Party/FreeRTOS/Source/timers.c **** static void prvSwitchTimerLists( void )
 872:Middlewares/Third_Party/FreeRTOS/Source/timers.c **** {
 873:Middlewares/Third_Party/FreeRTOS/Source/timers.c **** TickType_t xNextExpireTime, xReloadTime;
 874:Middlewares/Third_Party/FreeRTOS/Source/timers.c **** List_t *pxTemp;
 875:Middlewares/Third_Party/FreeRTOS/Source/timers.c **** Timer_t *pxTimer;
 876:Middlewares/Third_Party/FreeRTOS/Source/timers.c **** BaseType_t xResult;
 877:Middlewares/Third_Party/FreeRTOS/Source/timers.c **** 
 878:Middlewares/Third_Party/FreeRTOS/Source/timers.c **** 	/* The tick count has overflowed.  The timer lists must be switched.
 879:Middlewares/Third_Party/FreeRTOS/Source/timers.c **** 	If there are any timers still referenced from the current timer list
 880:Middlewares/Third_Party/FreeRTOS/Source/timers.c **** 	then they must have expired and should be processed before the lists
 881:Middlewares/Third_Party/FreeRTOS/Source/timers.c **** 	are switched. */
 882:Middlewares/Third_Party/FreeRTOS/Source/timers.c **** 	while( listLIST_IS_EMPTY( pxCurrentTimerList ) == pdFALSE )
 883:Middlewares/Third_Party/FreeRTOS/Source/timers.c **** 	{
 884:Middlewares/Third_Party/FreeRTOS/Source/timers.c **** 		xNextExpireTime = listGET_ITEM_VALUE_OF_HEAD_ENTRY( pxCurrentTimerList );
 885:Middlewares/Third_Party/FreeRTOS/Source/timers.c **** 
 886:Middlewares/Third_Party/FreeRTOS/Source/timers.c **** 		/* Remove the timer from the list. */
 887:Middlewares/Third_Party/FreeRTOS/Source/timers.c **** 		pxTimer = ( Timer_t * ) listGET_OWNER_OF_HEAD_ENTRY( pxCurrentTimerList );
 888:Middlewares/Third_Party/FreeRTOS/Source/timers.c **** 		( void ) uxListRemove( &( pxTimer->xTimerListItem ) );
ARM GAS  C:\Users\gx\AppData\Local\Temp\ccYrhkVs.s 			page 20


 889:Middlewares/Third_Party/FreeRTOS/Source/timers.c **** 		traceTIMER_EXPIRED( pxTimer );
 890:Middlewares/Third_Party/FreeRTOS/Source/timers.c **** 
 891:Middlewares/Third_Party/FreeRTOS/Source/timers.c **** 		/* Execute its callback, then send a command to restart the timer if
 892:Middlewares/Third_Party/FreeRTOS/Source/timers.c **** 		it is an auto-reload timer.  It cannot be restarted here as the lists
 893:Middlewares/Third_Party/FreeRTOS/Source/timers.c **** 		have not yet been switched. */
 894:Middlewares/Third_Party/FreeRTOS/Source/timers.c **** 		pxTimer->pxCallbackFunction( ( TimerHandle_t ) pxTimer );
 895:Middlewares/Third_Party/FreeRTOS/Source/timers.c **** 
 896:Middlewares/Third_Party/FreeRTOS/Source/timers.c **** 		if( pxTimer->uxAutoReload == ( UBaseType_t ) pdTRUE )
 897:Middlewares/Third_Party/FreeRTOS/Source/timers.c **** 		{
 898:Middlewares/Third_Party/FreeRTOS/Source/timers.c **** 			/* Calculate the reload value, and if the reload value results in
 899:Middlewares/Third_Party/FreeRTOS/Source/timers.c **** 			the timer going into the same timer list then it has already expired
 900:Middlewares/Third_Party/FreeRTOS/Source/timers.c **** 			and the timer should be re-inserted into the current list so it is
 901:Middlewares/Third_Party/FreeRTOS/Source/timers.c **** 			processed again within this loop.  Otherwise a command should be sent
 902:Middlewares/Third_Party/FreeRTOS/Source/timers.c **** 			to restart the timer to ensure it is only inserted into a list after
 903:Middlewares/Third_Party/FreeRTOS/Source/timers.c **** 			the lists have been swapped. */
 904:Middlewares/Third_Party/FreeRTOS/Source/timers.c **** 			xReloadTime = ( xNextExpireTime + pxTimer->xTimerPeriodInTicks );
 905:Middlewares/Third_Party/FreeRTOS/Source/timers.c **** 			if( xReloadTime > xNextExpireTime )
 906:Middlewares/Third_Party/FreeRTOS/Source/timers.c **** 			{
 907:Middlewares/Third_Party/FreeRTOS/Source/timers.c **** 				listSET_LIST_ITEM_VALUE( &( pxTimer->xTimerListItem ), xReloadTime );
 908:Middlewares/Third_Party/FreeRTOS/Source/timers.c **** 				listSET_LIST_ITEM_OWNER( &( pxTimer->xTimerListItem ), pxTimer );
 909:Middlewares/Third_Party/FreeRTOS/Source/timers.c **** 				vListInsert( pxCurrentTimerList, &( pxTimer->xTimerListItem ) );
 910:Middlewares/Third_Party/FreeRTOS/Source/timers.c **** 			}
 911:Middlewares/Third_Party/FreeRTOS/Source/timers.c **** 			else
 912:Middlewares/Third_Party/FreeRTOS/Source/timers.c **** 			{
 913:Middlewares/Third_Party/FreeRTOS/Source/timers.c **** 				xResult = xTimerGenericCommand( pxTimer, tmrCOMMAND_START_DONT_TRACE, xNextExpireTime, NULL, tm
 914:Middlewares/Third_Party/FreeRTOS/Source/timers.c **** 				configASSERT( xResult );
 915:Middlewares/Third_Party/FreeRTOS/Source/timers.c **** 				( void ) xResult;
 916:Middlewares/Third_Party/FreeRTOS/Source/timers.c **** 			}
 917:Middlewares/Third_Party/FreeRTOS/Source/timers.c **** 		}
 918:Middlewares/Third_Party/FreeRTOS/Source/timers.c **** 		else
 919:Middlewares/Third_Party/FreeRTOS/Source/timers.c **** 		{
 920:Middlewares/Third_Party/FreeRTOS/Source/timers.c **** 			mtCOVERAGE_TEST_MARKER();
 921:Middlewares/Third_Party/FreeRTOS/Source/timers.c **** 		}
 922:Middlewares/Third_Party/FreeRTOS/Source/timers.c **** 	}
 923:Middlewares/Third_Party/FreeRTOS/Source/timers.c **** 
 924:Middlewares/Third_Party/FreeRTOS/Source/timers.c **** 	pxTemp = pxCurrentTimerList;
 925:Middlewares/Third_Party/FreeRTOS/Source/timers.c **** 	pxCurrentTimerList = pxOverflowTimerList;
 926:Middlewares/Third_Party/FreeRTOS/Source/timers.c **** 	pxOverflowTimerList = pxTemp;
 927:Middlewares/Third_Party/FreeRTOS/Source/timers.c **** }
 928:Middlewares/Third_Party/FreeRTOS/Source/timers.c **** /*-----------------------------------------------------------*/
 929:Middlewares/Third_Party/FreeRTOS/Source/timers.c **** 
 930:Middlewares/Third_Party/FreeRTOS/Source/timers.c **** static void prvCheckForValidListAndQueue( void )
 931:Middlewares/Third_Party/FreeRTOS/Source/timers.c **** {
 185              		.loc 1 931 1 is_stmt 1 view -0
 186              		.cfi_startproc
 187              		@ args = 0, pretend = 0, frame = 0
 188              		@ frame_needed = 0, uses_anonymous_args = 0
 189 0000 38B5     		push	{r3, r4, r5, lr}
 190              	.LCFI1:
 191              		.cfi_def_cfa_offset 16
 192              		.cfi_offset 3, -16
 193              		.cfi_offset 4, -12
 194              		.cfi_offset 5, -8
 195              		.cfi_offset 14, -4
 932:Middlewares/Third_Party/FreeRTOS/Source/timers.c **** 	/* Check that the list from which active timers are referenced, and the
 933:Middlewares/Third_Party/FreeRTOS/Source/timers.c **** 	queue used to communicate with the timer service, have been
 934:Middlewares/Third_Party/FreeRTOS/Source/timers.c **** 	initialised. */
ARM GAS  C:\Users\gx\AppData\Local\Temp\ccYrhkVs.s 			page 21


 935:Middlewares/Third_Party/FreeRTOS/Source/timers.c **** 	taskENTER_CRITICAL();
 196              		.loc 1 935 2 view .LVU43
 197 0002 FFF7FEFF 		bl	vPortEnterCritical
 198              	.LVL20:
 936:Middlewares/Third_Party/FreeRTOS/Source/timers.c **** 	{
 937:Middlewares/Third_Party/FreeRTOS/Source/timers.c **** 		if( xTimerQueue == NULL )
 199              		.loc 1 937 3 view .LVU44
 200              		.loc 1 937 19 is_stmt 0 view .LVU45
 201 0006 0F4B     		ldr	r3, .L20
 202 0008 1B68     		ldr	r3, [r3]
 203              		.loc 1 937 5 view .LVU46
 204 000a 13B1     		cbz	r3, .L19
 205              	.L17:
 938:Middlewares/Third_Party/FreeRTOS/Source/timers.c **** 		{
 939:Middlewares/Third_Party/FreeRTOS/Source/timers.c **** 			vListInitialise( &xActiveTimerList1 );
 940:Middlewares/Third_Party/FreeRTOS/Source/timers.c **** 			vListInitialise( &xActiveTimerList2 );
 941:Middlewares/Third_Party/FreeRTOS/Source/timers.c **** 			pxCurrentTimerList = &xActiveTimerList1;
 942:Middlewares/Third_Party/FreeRTOS/Source/timers.c **** 			pxOverflowTimerList = &xActiveTimerList2;
 943:Middlewares/Third_Party/FreeRTOS/Source/timers.c **** 
 944:Middlewares/Third_Party/FreeRTOS/Source/timers.c **** 			#if( configSUPPORT_STATIC_ALLOCATION == 1 )
 945:Middlewares/Third_Party/FreeRTOS/Source/timers.c **** 			{
 946:Middlewares/Third_Party/FreeRTOS/Source/timers.c **** 				/* The timer queue is allocated statically in case
 947:Middlewares/Third_Party/FreeRTOS/Source/timers.c **** 				configSUPPORT_DYNAMIC_ALLOCATION is 0. */
 948:Middlewares/Third_Party/FreeRTOS/Source/timers.c **** 				static StaticQueue_t xStaticTimerQueue;
 949:Middlewares/Third_Party/FreeRTOS/Source/timers.c **** 				static uint8_t ucStaticTimerQueueStorage[ configTIMER_QUEUE_LENGTH * sizeof( DaemonTaskMessage_
 950:Middlewares/Third_Party/FreeRTOS/Source/timers.c **** 
 951:Middlewares/Third_Party/FreeRTOS/Source/timers.c **** 				xTimerQueue = xQueueCreateStatic( ( UBaseType_t ) configTIMER_QUEUE_LENGTH, sizeof( DaemonTaskM
 952:Middlewares/Third_Party/FreeRTOS/Source/timers.c **** 			}
 953:Middlewares/Third_Party/FreeRTOS/Source/timers.c **** 			#else
 954:Middlewares/Third_Party/FreeRTOS/Source/timers.c **** 			{
 955:Middlewares/Third_Party/FreeRTOS/Source/timers.c **** 				xTimerQueue = xQueueCreate( ( UBaseType_t ) configTIMER_QUEUE_LENGTH, sizeof( DaemonTaskMessage
 956:Middlewares/Third_Party/FreeRTOS/Source/timers.c **** 			}
 957:Middlewares/Third_Party/FreeRTOS/Source/timers.c **** 			#endif
 958:Middlewares/Third_Party/FreeRTOS/Source/timers.c **** 
 959:Middlewares/Third_Party/FreeRTOS/Source/timers.c **** 			#if ( configQUEUE_REGISTRY_SIZE > 0 )
 960:Middlewares/Third_Party/FreeRTOS/Source/timers.c **** 			{
 961:Middlewares/Third_Party/FreeRTOS/Source/timers.c **** 				if( xTimerQueue != NULL )
 962:Middlewares/Third_Party/FreeRTOS/Source/timers.c **** 				{
 963:Middlewares/Third_Party/FreeRTOS/Source/timers.c **** 					vQueueAddToRegistry( xTimerQueue, "TmrQ" );
 964:Middlewares/Third_Party/FreeRTOS/Source/timers.c **** 				}
 965:Middlewares/Third_Party/FreeRTOS/Source/timers.c **** 				else
 966:Middlewares/Third_Party/FreeRTOS/Source/timers.c **** 				{
 967:Middlewares/Third_Party/FreeRTOS/Source/timers.c **** 					mtCOVERAGE_TEST_MARKER();
 968:Middlewares/Third_Party/FreeRTOS/Source/timers.c **** 				}
 969:Middlewares/Third_Party/FreeRTOS/Source/timers.c **** 			}
 970:Middlewares/Third_Party/FreeRTOS/Source/timers.c **** 			#endif /* configQUEUE_REGISTRY_SIZE */
 971:Middlewares/Third_Party/FreeRTOS/Source/timers.c **** 		}
 972:Middlewares/Third_Party/FreeRTOS/Source/timers.c **** 		else
 973:Middlewares/Third_Party/FreeRTOS/Source/timers.c **** 		{
 974:Middlewares/Third_Party/FreeRTOS/Source/timers.c **** 			mtCOVERAGE_TEST_MARKER();
 206              		.loc 1 974 28 is_stmt 1 view .LVU47
 975:Middlewares/Third_Party/FreeRTOS/Source/timers.c **** 		}
 976:Middlewares/Third_Party/FreeRTOS/Source/timers.c **** 	}
 977:Middlewares/Third_Party/FreeRTOS/Source/timers.c **** 	taskEXIT_CRITICAL();
 207              		.loc 1 977 2 view .LVU48
 208 000c FFF7FEFF 		bl	vPortExitCritical
 209              	.LVL21:
ARM GAS  C:\Users\gx\AppData\Local\Temp\ccYrhkVs.s 			page 22


 978:Middlewares/Third_Party/FreeRTOS/Source/timers.c **** }
 210              		.loc 1 978 1 is_stmt 0 view .LVU49
 211 0010 38BD     		pop	{r3, r4, r5, pc}
 212              	.L19:
 939:Middlewares/Third_Party/FreeRTOS/Source/timers.c **** 			vListInitialise( &xActiveTimerList2 );
 213              		.loc 1 939 4 is_stmt 1 view .LVU50
 214 0012 0D4D     		ldr	r5, .L20+4
 215 0014 2846     		mov	r0, r5
 216 0016 FFF7FEFF 		bl	vListInitialise
 217              	.LVL22:
 940:Middlewares/Third_Party/FreeRTOS/Source/timers.c **** 			pxCurrentTimerList = &xActiveTimerList1;
 218              		.loc 1 940 4 view .LVU51
 219 001a 0C4C     		ldr	r4, .L20+8
 220 001c 2046     		mov	r0, r4
 221 001e FFF7FEFF 		bl	vListInitialise
 222              	.LVL23:
 941:Middlewares/Third_Party/FreeRTOS/Source/timers.c **** 			pxOverflowTimerList = &xActiveTimerList2;
 223              		.loc 1 941 4 view .LVU52
 941:Middlewares/Third_Party/FreeRTOS/Source/timers.c **** 			pxOverflowTimerList = &xActiveTimerList2;
 224              		.loc 1 941 23 is_stmt 0 view .LVU53
 225 0022 0B4B     		ldr	r3, .L20+12
 226 0024 1D60     		str	r5, [r3]
 942:Middlewares/Third_Party/FreeRTOS/Source/timers.c **** 
 227              		.loc 1 942 4 is_stmt 1 view .LVU54
 942:Middlewares/Third_Party/FreeRTOS/Source/timers.c **** 
 228              		.loc 1 942 24 is_stmt 0 view .LVU55
 229 0026 0B4B     		ldr	r3, .L20+16
 230 0028 1C60     		str	r4, [r3]
 955:Middlewares/Third_Party/FreeRTOS/Source/timers.c **** 			}
 231              		.loc 1 955 5 is_stmt 1 view .LVU56
 955:Middlewares/Third_Party/FreeRTOS/Source/timers.c **** 			}
 232              		.loc 1 955 19 is_stmt 0 view .LVU57
 233 002a 0022     		movs	r2, #0
 234 002c 0C21     		movs	r1, #12
 235 002e 0A20     		movs	r0, #10
 236 0030 FFF7FEFF 		bl	xQueueGenericCreate
 237              	.LVL24:
 955:Middlewares/Third_Party/FreeRTOS/Source/timers.c **** 			}
 238              		.loc 1 955 17 view .LVU58
 239 0034 034B     		ldr	r3, .L20
 240 0036 1860     		str	r0, [r3]
 961:Middlewares/Third_Party/FreeRTOS/Source/timers.c **** 				{
 241              		.loc 1 961 5 is_stmt 1 view .LVU59
 961:Middlewares/Third_Party/FreeRTOS/Source/timers.c **** 				{
 242              		.loc 1 961 7 is_stmt 0 view .LVU60
 243 0038 0028     		cmp	r0, #0
 244 003a E7D0     		beq	.L17
 963:Middlewares/Third_Party/FreeRTOS/Source/timers.c **** 				}
 245              		.loc 1 963 6 is_stmt 1 view .LVU61
 246 003c 0649     		ldr	r1, .L20+20
 247 003e FFF7FEFF 		bl	vQueueAddToRegistry
 248              	.LVL25:
 249 0042 E3E7     		b	.L17
 250              	.L21:
 251              		.align	2
 252              	.L20:
 253 0044 00000000 		.word	.LANCHOR2
ARM GAS  C:\Users\gx\AppData\Local\Temp\ccYrhkVs.s 			page 23


 254 0048 00000000 		.word	.LANCHOR3
 255 004c 00000000 		.word	.LANCHOR4
 256 0050 00000000 		.word	.LANCHOR0
 257 0054 00000000 		.word	.LANCHOR1
 258 0058 00000000 		.word	.LC0
 259              		.cfi_endproc
 260              	.LFE21:
 262              		.section	.text.prvInitialiseNewTimer,"ax",%progbits
 263              		.align	1
 264              		.syntax unified
 265              		.thumb
 266              		.thumb_func
 267              		.fpu fpv4-sp-d16
 269              	prvInitialiseNewTimer:
 270              	.LVL26:
 271              	.LFB7:
 394:Middlewares/Third_Party/FreeRTOS/Source/timers.c **** 	/* 0 is not a valid value for xTimerPeriodInTicks. */
 272              		.loc 1 394 1 view -0
 273              		.cfi_startproc
 274              		@ args = 8, pretend = 0, frame = 0
 275              		@ frame_needed = 0, uses_anonymous_args = 0
 394:Middlewares/Third_Party/FreeRTOS/Source/timers.c **** 	/* 0 is not a valid value for xTimerPeriodInTicks. */
 276              		.loc 1 394 1 is_stmt 0 view .LVU63
 277 0000 2DE9F041 		push	{r4, r5, r6, r7, r8, lr}
 278              	.LCFI2:
 279              		.cfi_def_cfa_offset 24
 280              		.cfi_offset 4, -24
 281              		.cfi_offset 5, -20
 282              		.cfi_offset 6, -16
 283              		.cfi_offset 7, -12
 284              		.cfi_offset 8, -8
 285              		.cfi_offset 14, -4
 286 0004 079C     		ldr	r4, [sp, #28]
 396:Middlewares/Third_Party/FreeRTOS/Source/timers.c **** 
 287              		.loc 1 396 2 is_stmt 1 view .LVU64
 288 0006 41B9     		cbnz	r1, .L23
 396:Middlewares/Third_Party/FreeRTOS/Source/timers.c **** 
 289              		.loc 1 396 2 view .LVU65
 290              	.LBB30:
 291              	.LBI30:
 292              		.file 2 "Middlewares/Third_Party/FreeRTOS/Source/portable/GCC/ARM_CM4F/portmacro.h"
   1:Middlewares/Third_Party/FreeRTOS/Source/portable/GCC/ARM_CM4F/portmacro.h **** /*
   2:Middlewares/Third_Party/FreeRTOS/Source/portable/GCC/ARM_CM4F/portmacro.h ****     FreeRTOS V9.0.0 - Copyright (C) 2016 Real Time Engineers Ltd.
   3:Middlewares/Third_Party/FreeRTOS/Source/portable/GCC/ARM_CM4F/portmacro.h ****     All rights reserved
   4:Middlewares/Third_Party/FreeRTOS/Source/portable/GCC/ARM_CM4F/portmacro.h **** 
   5:Middlewares/Third_Party/FreeRTOS/Source/portable/GCC/ARM_CM4F/portmacro.h ****     VISIT http://www.FreeRTOS.org TO ENSURE YOU ARE USING THE LATEST VERSION.
   6:Middlewares/Third_Party/FreeRTOS/Source/portable/GCC/ARM_CM4F/portmacro.h **** 
   7:Middlewares/Third_Party/FreeRTOS/Source/portable/GCC/ARM_CM4F/portmacro.h ****     This file is part of the FreeRTOS distribution.
   8:Middlewares/Third_Party/FreeRTOS/Source/portable/GCC/ARM_CM4F/portmacro.h **** 
   9:Middlewares/Third_Party/FreeRTOS/Source/portable/GCC/ARM_CM4F/portmacro.h ****     FreeRTOS is free software; you can redistribute it and/or modify it under
  10:Middlewares/Third_Party/FreeRTOS/Source/portable/GCC/ARM_CM4F/portmacro.h ****     the terms of the GNU General Public License (version 2) as published by the
  11:Middlewares/Third_Party/FreeRTOS/Source/portable/GCC/ARM_CM4F/portmacro.h ****     Free Software Foundation >>>> AND MODIFIED BY <<<< the FreeRTOS exception.
  12:Middlewares/Third_Party/FreeRTOS/Source/portable/GCC/ARM_CM4F/portmacro.h **** 
  13:Middlewares/Third_Party/FreeRTOS/Source/portable/GCC/ARM_CM4F/portmacro.h ****     ***************************************************************************
  14:Middlewares/Third_Party/FreeRTOS/Source/portable/GCC/ARM_CM4F/portmacro.h ****     >>!   NOTE: The modification to the GPL is included to allow you to     !<<
  15:Middlewares/Third_Party/FreeRTOS/Source/portable/GCC/ARM_CM4F/portmacro.h ****     >>!   distribute a combined work that includes FreeRTOS without being   !<<
  16:Middlewares/Third_Party/FreeRTOS/Source/portable/GCC/ARM_CM4F/portmacro.h ****     >>!   obliged to provide the source code for proprietary components     !<<
ARM GAS  C:\Users\gx\AppData\Local\Temp\ccYrhkVs.s 			page 24


  17:Middlewares/Third_Party/FreeRTOS/Source/portable/GCC/ARM_CM4F/portmacro.h ****     >>!   outside of the FreeRTOS kernel.                                   !<<
  18:Middlewares/Third_Party/FreeRTOS/Source/portable/GCC/ARM_CM4F/portmacro.h ****     ***************************************************************************
  19:Middlewares/Third_Party/FreeRTOS/Source/portable/GCC/ARM_CM4F/portmacro.h **** 
  20:Middlewares/Third_Party/FreeRTOS/Source/portable/GCC/ARM_CM4F/portmacro.h ****     FreeRTOS is distributed in the hope that it will be useful, but WITHOUT ANY
  21:Middlewares/Third_Party/FreeRTOS/Source/portable/GCC/ARM_CM4F/portmacro.h ****     WARRANTY; without even the implied warranty of MERCHANTABILITY or FITNESS
  22:Middlewares/Third_Party/FreeRTOS/Source/portable/GCC/ARM_CM4F/portmacro.h ****     FOR A PARTICULAR PURPOSE.  Full license text is available on the following
  23:Middlewares/Third_Party/FreeRTOS/Source/portable/GCC/ARM_CM4F/portmacro.h ****     link: http://www.freertos.org/a00114.html
  24:Middlewares/Third_Party/FreeRTOS/Source/portable/GCC/ARM_CM4F/portmacro.h **** 
  25:Middlewares/Third_Party/FreeRTOS/Source/portable/GCC/ARM_CM4F/portmacro.h ****     ***************************************************************************
  26:Middlewares/Third_Party/FreeRTOS/Source/portable/GCC/ARM_CM4F/portmacro.h ****      *                                                                       *
  27:Middlewares/Third_Party/FreeRTOS/Source/portable/GCC/ARM_CM4F/portmacro.h ****      *    FreeRTOS provides completely free yet professionally developed,    *
  28:Middlewares/Third_Party/FreeRTOS/Source/portable/GCC/ARM_CM4F/portmacro.h ****      *    robust, strictly quality controlled, supported, and cross          *
  29:Middlewares/Third_Party/FreeRTOS/Source/portable/GCC/ARM_CM4F/portmacro.h ****      *    platform software that is more than just the market leader, it     *
  30:Middlewares/Third_Party/FreeRTOS/Source/portable/GCC/ARM_CM4F/portmacro.h ****      *    is the industry's de facto standard.                               *
  31:Middlewares/Third_Party/FreeRTOS/Source/portable/GCC/ARM_CM4F/portmacro.h ****      *                                                                       *
  32:Middlewares/Third_Party/FreeRTOS/Source/portable/GCC/ARM_CM4F/portmacro.h ****      *    Help yourself get started quickly while simultaneously helping     *
  33:Middlewares/Third_Party/FreeRTOS/Source/portable/GCC/ARM_CM4F/portmacro.h ****      *    to support the FreeRTOS project by purchasing a FreeRTOS           *
  34:Middlewares/Third_Party/FreeRTOS/Source/portable/GCC/ARM_CM4F/portmacro.h ****      *    tutorial book, reference manual, or both:                          *
  35:Middlewares/Third_Party/FreeRTOS/Source/portable/GCC/ARM_CM4F/portmacro.h ****      *    http://www.FreeRTOS.org/Documentation                              *
  36:Middlewares/Third_Party/FreeRTOS/Source/portable/GCC/ARM_CM4F/portmacro.h ****      *                                                                       *
  37:Middlewares/Third_Party/FreeRTOS/Source/portable/GCC/ARM_CM4F/portmacro.h ****     ***************************************************************************
  38:Middlewares/Third_Party/FreeRTOS/Source/portable/GCC/ARM_CM4F/portmacro.h **** 
  39:Middlewares/Third_Party/FreeRTOS/Source/portable/GCC/ARM_CM4F/portmacro.h ****     http://www.FreeRTOS.org/FAQHelp.html - Having a problem?  Start by reading
  40:Middlewares/Third_Party/FreeRTOS/Source/portable/GCC/ARM_CM4F/portmacro.h ****     the FAQ page "My application does not run, what could be wrong?".  Have you
  41:Middlewares/Third_Party/FreeRTOS/Source/portable/GCC/ARM_CM4F/portmacro.h ****     defined configASSERT()?
  42:Middlewares/Third_Party/FreeRTOS/Source/portable/GCC/ARM_CM4F/portmacro.h **** 
  43:Middlewares/Third_Party/FreeRTOS/Source/portable/GCC/ARM_CM4F/portmacro.h ****     http://www.FreeRTOS.org/support - In return for receiving this top quality
  44:Middlewares/Third_Party/FreeRTOS/Source/portable/GCC/ARM_CM4F/portmacro.h ****     embedded software for free we request you assist our global community by
  45:Middlewares/Third_Party/FreeRTOS/Source/portable/GCC/ARM_CM4F/portmacro.h ****     participating in the support forum.
  46:Middlewares/Third_Party/FreeRTOS/Source/portable/GCC/ARM_CM4F/portmacro.h **** 
  47:Middlewares/Third_Party/FreeRTOS/Source/portable/GCC/ARM_CM4F/portmacro.h ****     http://www.FreeRTOS.org/training - Investing in training allows your team to
  48:Middlewares/Third_Party/FreeRTOS/Source/portable/GCC/ARM_CM4F/portmacro.h ****     be as productive as possible as early as possible.  Now you can receive
  49:Middlewares/Third_Party/FreeRTOS/Source/portable/GCC/ARM_CM4F/portmacro.h ****     FreeRTOS training directly from Richard Barry, CEO of Real Time Engineers
  50:Middlewares/Third_Party/FreeRTOS/Source/portable/GCC/ARM_CM4F/portmacro.h ****     Ltd, and the world's leading authority on the world's leading RTOS.
  51:Middlewares/Third_Party/FreeRTOS/Source/portable/GCC/ARM_CM4F/portmacro.h **** 
  52:Middlewares/Third_Party/FreeRTOS/Source/portable/GCC/ARM_CM4F/portmacro.h ****     http://www.FreeRTOS.org/plus - A selection of FreeRTOS ecosystem products,
  53:Middlewares/Third_Party/FreeRTOS/Source/portable/GCC/ARM_CM4F/portmacro.h ****     including FreeRTOS+Trace - an indispensable productivity tool, a DOS
  54:Middlewares/Third_Party/FreeRTOS/Source/portable/GCC/ARM_CM4F/portmacro.h ****     compatible FAT file system, and our tiny thread aware UDP/IP stack.
  55:Middlewares/Third_Party/FreeRTOS/Source/portable/GCC/ARM_CM4F/portmacro.h **** 
  56:Middlewares/Third_Party/FreeRTOS/Source/portable/GCC/ARM_CM4F/portmacro.h ****     http://www.FreeRTOS.org/labs - Where new FreeRTOS products go to incubate.
  57:Middlewares/Third_Party/FreeRTOS/Source/portable/GCC/ARM_CM4F/portmacro.h ****     Come and try FreeRTOS+TCP, our new open source TCP/IP stack for FreeRTOS.
  58:Middlewares/Third_Party/FreeRTOS/Source/portable/GCC/ARM_CM4F/portmacro.h **** 
  59:Middlewares/Third_Party/FreeRTOS/Source/portable/GCC/ARM_CM4F/portmacro.h ****     http://www.OpenRTOS.com - Real Time Engineers ltd. license FreeRTOS to High
  60:Middlewares/Third_Party/FreeRTOS/Source/portable/GCC/ARM_CM4F/portmacro.h ****     Integrity Systems ltd. to sell under the OpenRTOS brand.  Low cost OpenRTOS
  61:Middlewares/Third_Party/FreeRTOS/Source/portable/GCC/ARM_CM4F/portmacro.h ****     licenses offer ticketed support, indemnification and commercial middleware.
  62:Middlewares/Third_Party/FreeRTOS/Source/portable/GCC/ARM_CM4F/portmacro.h **** 
  63:Middlewares/Third_Party/FreeRTOS/Source/portable/GCC/ARM_CM4F/portmacro.h ****     http://www.SafeRTOS.com - High Integrity Systems also provide a safety
  64:Middlewares/Third_Party/FreeRTOS/Source/portable/GCC/ARM_CM4F/portmacro.h ****     engineered and independently SIL3 certified version for use in safety and
  65:Middlewares/Third_Party/FreeRTOS/Source/portable/GCC/ARM_CM4F/portmacro.h ****     mission critical applications that require provable dependability.
  66:Middlewares/Third_Party/FreeRTOS/Source/portable/GCC/ARM_CM4F/portmacro.h **** 
  67:Middlewares/Third_Party/FreeRTOS/Source/portable/GCC/ARM_CM4F/portmacro.h ****     1 tab == 4 spaces!
  68:Middlewares/Third_Party/FreeRTOS/Source/portable/GCC/ARM_CM4F/portmacro.h **** */
  69:Middlewares/Third_Party/FreeRTOS/Source/portable/GCC/ARM_CM4F/portmacro.h **** 
  70:Middlewares/Third_Party/FreeRTOS/Source/portable/GCC/ARM_CM4F/portmacro.h **** 
  71:Middlewares/Third_Party/FreeRTOS/Source/portable/GCC/ARM_CM4F/portmacro.h **** #ifndef PORTMACRO_H
  72:Middlewares/Third_Party/FreeRTOS/Source/portable/GCC/ARM_CM4F/portmacro.h **** #define PORTMACRO_H
  73:Middlewares/Third_Party/FreeRTOS/Source/portable/GCC/ARM_CM4F/portmacro.h **** 
ARM GAS  C:\Users\gx\AppData\Local\Temp\ccYrhkVs.s 			page 25


  74:Middlewares/Third_Party/FreeRTOS/Source/portable/GCC/ARM_CM4F/portmacro.h **** #ifdef __cplusplus
  75:Middlewares/Third_Party/FreeRTOS/Source/portable/GCC/ARM_CM4F/portmacro.h **** extern "C" {
  76:Middlewares/Third_Party/FreeRTOS/Source/portable/GCC/ARM_CM4F/portmacro.h **** #endif
  77:Middlewares/Third_Party/FreeRTOS/Source/portable/GCC/ARM_CM4F/portmacro.h **** 
  78:Middlewares/Third_Party/FreeRTOS/Source/portable/GCC/ARM_CM4F/portmacro.h **** /*-----------------------------------------------------------
  79:Middlewares/Third_Party/FreeRTOS/Source/portable/GCC/ARM_CM4F/portmacro.h ****  * Port specific definitions.
  80:Middlewares/Third_Party/FreeRTOS/Source/portable/GCC/ARM_CM4F/portmacro.h ****  *
  81:Middlewares/Third_Party/FreeRTOS/Source/portable/GCC/ARM_CM4F/portmacro.h ****  * The settings in this file configure FreeRTOS correctly for the
  82:Middlewares/Third_Party/FreeRTOS/Source/portable/GCC/ARM_CM4F/portmacro.h ****  * given hardware and compiler.
  83:Middlewares/Third_Party/FreeRTOS/Source/portable/GCC/ARM_CM4F/portmacro.h ****  *
  84:Middlewares/Third_Party/FreeRTOS/Source/portable/GCC/ARM_CM4F/portmacro.h ****  * These settings should not be altered.
  85:Middlewares/Third_Party/FreeRTOS/Source/portable/GCC/ARM_CM4F/portmacro.h ****  *-----------------------------------------------------------
  86:Middlewares/Third_Party/FreeRTOS/Source/portable/GCC/ARM_CM4F/portmacro.h ****  */
  87:Middlewares/Third_Party/FreeRTOS/Source/portable/GCC/ARM_CM4F/portmacro.h **** 
  88:Middlewares/Third_Party/FreeRTOS/Source/portable/GCC/ARM_CM4F/portmacro.h **** /* Type definitions. */
  89:Middlewares/Third_Party/FreeRTOS/Source/portable/GCC/ARM_CM4F/portmacro.h **** #define portCHAR		char
  90:Middlewares/Third_Party/FreeRTOS/Source/portable/GCC/ARM_CM4F/portmacro.h **** #define portFLOAT		float
  91:Middlewares/Third_Party/FreeRTOS/Source/portable/GCC/ARM_CM4F/portmacro.h **** #define portDOUBLE		double
  92:Middlewares/Third_Party/FreeRTOS/Source/portable/GCC/ARM_CM4F/portmacro.h **** #define portLONG		long
  93:Middlewares/Third_Party/FreeRTOS/Source/portable/GCC/ARM_CM4F/portmacro.h **** #define portSHORT		short
  94:Middlewares/Third_Party/FreeRTOS/Source/portable/GCC/ARM_CM4F/portmacro.h **** #define portSTACK_TYPE	uint32_t
  95:Middlewares/Third_Party/FreeRTOS/Source/portable/GCC/ARM_CM4F/portmacro.h **** #define portBASE_TYPE	long
  96:Middlewares/Third_Party/FreeRTOS/Source/portable/GCC/ARM_CM4F/portmacro.h **** 
  97:Middlewares/Third_Party/FreeRTOS/Source/portable/GCC/ARM_CM4F/portmacro.h **** typedef portSTACK_TYPE StackType_t;
  98:Middlewares/Third_Party/FreeRTOS/Source/portable/GCC/ARM_CM4F/portmacro.h **** typedef long BaseType_t;
  99:Middlewares/Third_Party/FreeRTOS/Source/portable/GCC/ARM_CM4F/portmacro.h **** typedef unsigned long UBaseType_t;
 100:Middlewares/Third_Party/FreeRTOS/Source/portable/GCC/ARM_CM4F/portmacro.h **** 
 101:Middlewares/Third_Party/FreeRTOS/Source/portable/GCC/ARM_CM4F/portmacro.h **** #if( configUSE_16_BIT_TICKS == 1 )
 102:Middlewares/Third_Party/FreeRTOS/Source/portable/GCC/ARM_CM4F/portmacro.h **** 	typedef uint16_t TickType_t;
 103:Middlewares/Third_Party/FreeRTOS/Source/portable/GCC/ARM_CM4F/portmacro.h **** 	#define portMAX_DELAY ( TickType_t ) 0xffff
 104:Middlewares/Third_Party/FreeRTOS/Source/portable/GCC/ARM_CM4F/portmacro.h **** #else
 105:Middlewares/Third_Party/FreeRTOS/Source/portable/GCC/ARM_CM4F/portmacro.h **** 	typedef uint32_t TickType_t;
 106:Middlewares/Third_Party/FreeRTOS/Source/portable/GCC/ARM_CM4F/portmacro.h **** 	#define portMAX_DELAY ( TickType_t ) 0xffffffffUL
 107:Middlewares/Third_Party/FreeRTOS/Source/portable/GCC/ARM_CM4F/portmacro.h **** 
 108:Middlewares/Third_Party/FreeRTOS/Source/portable/GCC/ARM_CM4F/portmacro.h **** 	/* 32-bit tick type on a 32-bit architecture, so reads of the tick count do
 109:Middlewares/Third_Party/FreeRTOS/Source/portable/GCC/ARM_CM4F/portmacro.h **** 	not need to be guarded with a critical section. */
 110:Middlewares/Third_Party/FreeRTOS/Source/portable/GCC/ARM_CM4F/portmacro.h **** 	#define portTICK_TYPE_IS_ATOMIC 1
 111:Middlewares/Third_Party/FreeRTOS/Source/portable/GCC/ARM_CM4F/portmacro.h **** #endif
 112:Middlewares/Third_Party/FreeRTOS/Source/portable/GCC/ARM_CM4F/portmacro.h **** /*-----------------------------------------------------------*/
 113:Middlewares/Third_Party/FreeRTOS/Source/portable/GCC/ARM_CM4F/portmacro.h **** 
 114:Middlewares/Third_Party/FreeRTOS/Source/portable/GCC/ARM_CM4F/portmacro.h **** /* Architecture specifics. */
 115:Middlewares/Third_Party/FreeRTOS/Source/portable/GCC/ARM_CM4F/portmacro.h **** #define portSTACK_GROWTH			( -1 )
 116:Middlewares/Third_Party/FreeRTOS/Source/portable/GCC/ARM_CM4F/portmacro.h **** #define portTICK_PERIOD_MS			( ( TickType_t ) 1000 / configTICK_RATE_HZ )
 117:Middlewares/Third_Party/FreeRTOS/Source/portable/GCC/ARM_CM4F/portmacro.h **** #define portBYTE_ALIGNMENT			8
 118:Middlewares/Third_Party/FreeRTOS/Source/portable/GCC/ARM_CM4F/portmacro.h **** /*-----------------------------------------------------------*/
 119:Middlewares/Third_Party/FreeRTOS/Source/portable/GCC/ARM_CM4F/portmacro.h **** 
 120:Middlewares/Third_Party/FreeRTOS/Source/portable/GCC/ARM_CM4F/portmacro.h **** /* Scheduler utilities. */
 121:Middlewares/Third_Party/FreeRTOS/Source/portable/GCC/ARM_CM4F/portmacro.h **** #define portYIELD() 															\
 122:Middlewares/Third_Party/FreeRTOS/Source/portable/GCC/ARM_CM4F/portmacro.h **** {																				\
 123:Middlewares/Third_Party/FreeRTOS/Source/portable/GCC/ARM_CM4F/portmacro.h **** 	/* Set a PendSV to request a context switch. */								\
 124:Middlewares/Third_Party/FreeRTOS/Source/portable/GCC/ARM_CM4F/portmacro.h **** 	portNVIC_INT_CTRL_REG = portNVIC_PENDSVSET_BIT;								\
 125:Middlewares/Third_Party/FreeRTOS/Source/portable/GCC/ARM_CM4F/portmacro.h **** 																				\
 126:Middlewares/Third_Party/FreeRTOS/Source/portable/GCC/ARM_CM4F/portmacro.h **** 	/* Barriers are normally not required but do ensure the code is completely	\
 127:Middlewares/Third_Party/FreeRTOS/Source/portable/GCC/ARM_CM4F/portmacro.h **** 	within the specified behaviour for the architecture. */						\
 128:Middlewares/Third_Party/FreeRTOS/Source/portable/GCC/ARM_CM4F/portmacro.h **** 	__asm volatile( "dsb" );													\
 129:Middlewares/Third_Party/FreeRTOS/Source/portable/GCC/ARM_CM4F/portmacro.h **** 	__asm volatile( "isb" );													\
 130:Middlewares/Third_Party/FreeRTOS/Source/portable/GCC/ARM_CM4F/portmacro.h **** }
ARM GAS  C:\Users\gx\AppData\Local\Temp\ccYrhkVs.s 			page 26


 131:Middlewares/Third_Party/FreeRTOS/Source/portable/GCC/ARM_CM4F/portmacro.h **** 
 132:Middlewares/Third_Party/FreeRTOS/Source/portable/GCC/ARM_CM4F/portmacro.h **** #define portNVIC_INT_CTRL_REG		( * ( ( volatile uint32_t * ) 0xe000ed04 ) )
 133:Middlewares/Third_Party/FreeRTOS/Source/portable/GCC/ARM_CM4F/portmacro.h **** #define portNVIC_PENDSVSET_BIT		( 1UL << 28UL )
 134:Middlewares/Third_Party/FreeRTOS/Source/portable/GCC/ARM_CM4F/portmacro.h **** #define portEND_SWITCHING_ISR( xSwitchRequired ) if( xSwitchRequired != pdFALSE ) portYIELD()
 135:Middlewares/Third_Party/FreeRTOS/Source/portable/GCC/ARM_CM4F/portmacro.h **** #define portYIELD_FROM_ISR( x ) portEND_SWITCHING_ISR( x )
 136:Middlewares/Third_Party/FreeRTOS/Source/portable/GCC/ARM_CM4F/portmacro.h **** /*-----------------------------------------------------------*/
 137:Middlewares/Third_Party/FreeRTOS/Source/portable/GCC/ARM_CM4F/portmacro.h **** 
 138:Middlewares/Third_Party/FreeRTOS/Source/portable/GCC/ARM_CM4F/portmacro.h **** /* Critical section management. */
 139:Middlewares/Third_Party/FreeRTOS/Source/portable/GCC/ARM_CM4F/portmacro.h **** extern void vPortEnterCritical( void );
 140:Middlewares/Third_Party/FreeRTOS/Source/portable/GCC/ARM_CM4F/portmacro.h **** extern void vPortExitCritical( void );
 141:Middlewares/Third_Party/FreeRTOS/Source/portable/GCC/ARM_CM4F/portmacro.h **** #define portSET_INTERRUPT_MASK_FROM_ISR()		ulPortRaiseBASEPRI()
 142:Middlewares/Third_Party/FreeRTOS/Source/portable/GCC/ARM_CM4F/portmacro.h **** #define portCLEAR_INTERRUPT_MASK_FROM_ISR(x)	vPortSetBASEPRI(x)
 143:Middlewares/Third_Party/FreeRTOS/Source/portable/GCC/ARM_CM4F/portmacro.h **** #define portDISABLE_INTERRUPTS()				vPortRaiseBASEPRI()
 144:Middlewares/Third_Party/FreeRTOS/Source/portable/GCC/ARM_CM4F/portmacro.h **** #define portENABLE_INTERRUPTS()					vPortSetBASEPRI(0)
 145:Middlewares/Third_Party/FreeRTOS/Source/portable/GCC/ARM_CM4F/portmacro.h **** #define portENTER_CRITICAL()					vPortEnterCritical()
 146:Middlewares/Third_Party/FreeRTOS/Source/portable/GCC/ARM_CM4F/portmacro.h **** #define portEXIT_CRITICAL()						vPortExitCritical()
 147:Middlewares/Third_Party/FreeRTOS/Source/portable/GCC/ARM_CM4F/portmacro.h **** 
 148:Middlewares/Third_Party/FreeRTOS/Source/portable/GCC/ARM_CM4F/portmacro.h **** /*-----------------------------------------------------------*/
 149:Middlewares/Third_Party/FreeRTOS/Source/portable/GCC/ARM_CM4F/portmacro.h **** 
 150:Middlewares/Third_Party/FreeRTOS/Source/portable/GCC/ARM_CM4F/portmacro.h **** /* Task function macros as described on the FreeRTOS.org WEB site.  These are
 151:Middlewares/Third_Party/FreeRTOS/Source/portable/GCC/ARM_CM4F/portmacro.h **** not necessary for to use this port.  They are defined so the common demo files
 152:Middlewares/Third_Party/FreeRTOS/Source/portable/GCC/ARM_CM4F/portmacro.h **** (which build with all the ports) will build. */
 153:Middlewares/Third_Party/FreeRTOS/Source/portable/GCC/ARM_CM4F/portmacro.h **** #define portTASK_FUNCTION_PROTO( vFunction, pvParameters ) void vFunction( void *pvParameters )
 154:Middlewares/Third_Party/FreeRTOS/Source/portable/GCC/ARM_CM4F/portmacro.h **** #define portTASK_FUNCTION( vFunction, pvParameters ) void vFunction( void *pvParameters )
 155:Middlewares/Third_Party/FreeRTOS/Source/portable/GCC/ARM_CM4F/portmacro.h **** /*-----------------------------------------------------------*/
 156:Middlewares/Third_Party/FreeRTOS/Source/portable/GCC/ARM_CM4F/portmacro.h **** 
 157:Middlewares/Third_Party/FreeRTOS/Source/portable/GCC/ARM_CM4F/portmacro.h **** /* Tickless idle/low power functionality. */
 158:Middlewares/Third_Party/FreeRTOS/Source/portable/GCC/ARM_CM4F/portmacro.h **** #ifndef portSUPPRESS_TICKS_AND_SLEEP
 159:Middlewares/Third_Party/FreeRTOS/Source/portable/GCC/ARM_CM4F/portmacro.h **** 	extern void vPortSuppressTicksAndSleep( TickType_t xExpectedIdleTime );
 160:Middlewares/Third_Party/FreeRTOS/Source/portable/GCC/ARM_CM4F/portmacro.h **** 	#define portSUPPRESS_TICKS_AND_SLEEP( xExpectedIdleTime ) vPortSuppressTicksAndSleep( xExpectedIdl
 161:Middlewares/Third_Party/FreeRTOS/Source/portable/GCC/ARM_CM4F/portmacro.h **** #endif
 162:Middlewares/Third_Party/FreeRTOS/Source/portable/GCC/ARM_CM4F/portmacro.h **** /*-----------------------------------------------------------*/
 163:Middlewares/Third_Party/FreeRTOS/Source/portable/GCC/ARM_CM4F/portmacro.h **** 
 164:Middlewares/Third_Party/FreeRTOS/Source/portable/GCC/ARM_CM4F/portmacro.h **** /* Architecture specific optimisations. */
 165:Middlewares/Third_Party/FreeRTOS/Source/portable/GCC/ARM_CM4F/portmacro.h **** #ifndef configUSE_PORT_OPTIMISED_TASK_SELECTION
 166:Middlewares/Third_Party/FreeRTOS/Source/portable/GCC/ARM_CM4F/portmacro.h **** 	#define configUSE_PORT_OPTIMISED_TASK_SELECTION 1
 167:Middlewares/Third_Party/FreeRTOS/Source/portable/GCC/ARM_CM4F/portmacro.h **** #endif
 168:Middlewares/Third_Party/FreeRTOS/Source/portable/GCC/ARM_CM4F/portmacro.h **** 
 169:Middlewares/Third_Party/FreeRTOS/Source/portable/GCC/ARM_CM4F/portmacro.h **** #if configUSE_PORT_OPTIMISED_TASK_SELECTION == 1
 170:Middlewares/Third_Party/FreeRTOS/Source/portable/GCC/ARM_CM4F/portmacro.h **** 
 171:Middlewares/Third_Party/FreeRTOS/Source/portable/GCC/ARM_CM4F/portmacro.h **** 	/* Generic helper function. */
 172:Middlewares/Third_Party/FreeRTOS/Source/portable/GCC/ARM_CM4F/portmacro.h **** 	__attribute__( ( always_inline ) ) static inline uint8_t ucPortCountLeadingZeros( uint32_t ulBitma
 173:Middlewares/Third_Party/FreeRTOS/Source/portable/GCC/ARM_CM4F/portmacro.h **** 	{
 174:Middlewares/Third_Party/FreeRTOS/Source/portable/GCC/ARM_CM4F/portmacro.h **** 	uint8_t ucReturn;
 175:Middlewares/Third_Party/FreeRTOS/Source/portable/GCC/ARM_CM4F/portmacro.h **** 
 176:Middlewares/Third_Party/FreeRTOS/Source/portable/GCC/ARM_CM4F/portmacro.h **** 		__asm volatile ( "clz %0, %1" : "=r" ( ucReturn ) : "r" ( ulBitmap ) );
 177:Middlewares/Third_Party/FreeRTOS/Source/portable/GCC/ARM_CM4F/portmacro.h **** 		return ucReturn;
 178:Middlewares/Third_Party/FreeRTOS/Source/portable/GCC/ARM_CM4F/portmacro.h **** 	}
 179:Middlewares/Third_Party/FreeRTOS/Source/portable/GCC/ARM_CM4F/portmacro.h **** 
 180:Middlewares/Third_Party/FreeRTOS/Source/portable/GCC/ARM_CM4F/portmacro.h **** 	/* Check the configuration. */
 181:Middlewares/Third_Party/FreeRTOS/Source/portable/GCC/ARM_CM4F/portmacro.h **** 	#if( configMAX_PRIORITIES > 32 )
 182:Middlewares/Third_Party/FreeRTOS/Source/portable/GCC/ARM_CM4F/portmacro.h **** 		#error configUSE_PORT_OPTIMISED_TASK_SELECTION can only be set to 1 when configMAX_PRIORITIES is 
 183:Middlewares/Third_Party/FreeRTOS/Source/portable/GCC/ARM_CM4F/portmacro.h **** 	#endif
 184:Middlewares/Third_Party/FreeRTOS/Source/portable/GCC/ARM_CM4F/portmacro.h **** 
 185:Middlewares/Third_Party/FreeRTOS/Source/portable/GCC/ARM_CM4F/portmacro.h **** 	/* Store/clear the ready priorities in a bit map. */
 186:Middlewares/Third_Party/FreeRTOS/Source/portable/GCC/ARM_CM4F/portmacro.h **** 	#define portRECORD_READY_PRIORITY( uxPriority, uxReadyPriorities ) ( uxReadyPriorities ) |= ( 1UL 
 187:Middlewares/Third_Party/FreeRTOS/Source/portable/GCC/ARM_CM4F/portmacro.h **** 	#define portRESET_READY_PRIORITY( uxPriority, uxReadyPriorities ) ( uxReadyPriorities ) &= ~( 1UL 
ARM GAS  C:\Users\gx\AppData\Local\Temp\ccYrhkVs.s 			page 27


 188:Middlewares/Third_Party/FreeRTOS/Source/portable/GCC/ARM_CM4F/portmacro.h **** 
 189:Middlewares/Third_Party/FreeRTOS/Source/portable/GCC/ARM_CM4F/portmacro.h **** 	/*-----------------------------------------------------------*/
 190:Middlewares/Third_Party/FreeRTOS/Source/portable/GCC/ARM_CM4F/portmacro.h **** 
 191:Middlewares/Third_Party/FreeRTOS/Source/portable/GCC/ARM_CM4F/portmacro.h **** 	#define portGET_HIGHEST_PRIORITY( uxTopPriority, uxReadyPriorities ) uxTopPriority = ( 31UL - ( ui
 192:Middlewares/Third_Party/FreeRTOS/Source/portable/GCC/ARM_CM4F/portmacro.h **** 
 193:Middlewares/Third_Party/FreeRTOS/Source/portable/GCC/ARM_CM4F/portmacro.h **** #endif /* configUSE_PORT_OPTIMISED_TASK_SELECTION */
 194:Middlewares/Third_Party/FreeRTOS/Source/portable/GCC/ARM_CM4F/portmacro.h **** 
 195:Middlewares/Third_Party/FreeRTOS/Source/portable/GCC/ARM_CM4F/portmacro.h **** /*-----------------------------------------------------------*/
 196:Middlewares/Third_Party/FreeRTOS/Source/portable/GCC/ARM_CM4F/portmacro.h **** 
 197:Middlewares/Third_Party/FreeRTOS/Source/portable/GCC/ARM_CM4F/portmacro.h **** #ifdef configASSERT
 198:Middlewares/Third_Party/FreeRTOS/Source/portable/GCC/ARM_CM4F/portmacro.h **** 	void vPortValidateInterruptPriority( void );
 199:Middlewares/Third_Party/FreeRTOS/Source/portable/GCC/ARM_CM4F/portmacro.h **** 	#define portASSERT_IF_INTERRUPT_PRIORITY_INVALID() 	vPortValidateInterruptPriority()
 200:Middlewares/Third_Party/FreeRTOS/Source/portable/GCC/ARM_CM4F/portmacro.h **** #endif
 201:Middlewares/Third_Party/FreeRTOS/Source/portable/GCC/ARM_CM4F/portmacro.h **** 
 202:Middlewares/Third_Party/FreeRTOS/Source/portable/GCC/ARM_CM4F/portmacro.h **** /* portNOP() is not required by this port. */
 203:Middlewares/Third_Party/FreeRTOS/Source/portable/GCC/ARM_CM4F/portmacro.h **** #define portNOP()
 204:Middlewares/Third_Party/FreeRTOS/Source/portable/GCC/ARM_CM4F/portmacro.h **** 
 205:Middlewares/Third_Party/FreeRTOS/Source/portable/GCC/ARM_CM4F/portmacro.h **** #define portINLINE	__inline
 206:Middlewares/Third_Party/FreeRTOS/Source/portable/GCC/ARM_CM4F/portmacro.h **** 
 207:Middlewares/Third_Party/FreeRTOS/Source/portable/GCC/ARM_CM4F/portmacro.h **** #ifndef portFORCE_INLINE
 208:Middlewares/Third_Party/FreeRTOS/Source/portable/GCC/ARM_CM4F/portmacro.h **** 	#define portFORCE_INLINE inline __attribute__(( always_inline))
 209:Middlewares/Third_Party/FreeRTOS/Source/portable/GCC/ARM_CM4F/portmacro.h **** #endif
 210:Middlewares/Third_Party/FreeRTOS/Source/portable/GCC/ARM_CM4F/portmacro.h **** 
 211:Middlewares/Third_Party/FreeRTOS/Source/portable/GCC/ARM_CM4F/portmacro.h **** portFORCE_INLINE static BaseType_t xPortIsInsideInterrupt( void )
 212:Middlewares/Third_Party/FreeRTOS/Source/portable/GCC/ARM_CM4F/portmacro.h **** {
 213:Middlewares/Third_Party/FreeRTOS/Source/portable/GCC/ARM_CM4F/portmacro.h **** uint32_t ulCurrentInterrupt;
 214:Middlewares/Third_Party/FreeRTOS/Source/portable/GCC/ARM_CM4F/portmacro.h **** BaseType_t xReturn;
 215:Middlewares/Third_Party/FreeRTOS/Source/portable/GCC/ARM_CM4F/portmacro.h **** 
 216:Middlewares/Third_Party/FreeRTOS/Source/portable/GCC/ARM_CM4F/portmacro.h **** 	/* Obtain the number of the currently executing interrupt. */
 217:Middlewares/Third_Party/FreeRTOS/Source/portable/GCC/ARM_CM4F/portmacro.h **** 	__asm volatile( "mrs %0, ipsr" : "=r"( ulCurrentInterrupt ) );
 218:Middlewares/Third_Party/FreeRTOS/Source/portable/GCC/ARM_CM4F/portmacro.h **** 
 219:Middlewares/Third_Party/FreeRTOS/Source/portable/GCC/ARM_CM4F/portmacro.h **** 	if( ulCurrentInterrupt == 0 )
 220:Middlewares/Third_Party/FreeRTOS/Source/portable/GCC/ARM_CM4F/portmacro.h **** 	{
 221:Middlewares/Third_Party/FreeRTOS/Source/portable/GCC/ARM_CM4F/portmacro.h **** 		xReturn = pdFALSE;
 222:Middlewares/Third_Party/FreeRTOS/Source/portable/GCC/ARM_CM4F/portmacro.h **** 	}
 223:Middlewares/Third_Party/FreeRTOS/Source/portable/GCC/ARM_CM4F/portmacro.h **** 	else
 224:Middlewares/Third_Party/FreeRTOS/Source/portable/GCC/ARM_CM4F/portmacro.h **** 	{
 225:Middlewares/Third_Party/FreeRTOS/Source/portable/GCC/ARM_CM4F/portmacro.h **** 		xReturn = pdTRUE;
 226:Middlewares/Third_Party/FreeRTOS/Source/portable/GCC/ARM_CM4F/portmacro.h **** 	}
 227:Middlewares/Third_Party/FreeRTOS/Source/portable/GCC/ARM_CM4F/portmacro.h **** 
 228:Middlewares/Third_Party/FreeRTOS/Source/portable/GCC/ARM_CM4F/portmacro.h **** 	return xReturn;
 229:Middlewares/Third_Party/FreeRTOS/Source/portable/GCC/ARM_CM4F/portmacro.h **** }
 230:Middlewares/Third_Party/FreeRTOS/Source/portable/GCC/ARM_CM4F/portmacro.h **** 
 231:Middlewares/Third_Party/FreeRTOS/Source/portable/GCC/ARM_CM4F/portmacro.h **** /*-----------------------------------------------------------*/
 232:Middlewares/Third_Party/FreeRTOS/Source/portable/GCC/ARM_CM4F/portmacro.h **** 
 233:Middlewares/Third_Party/FreeRTOS/Source/portable/GCC/ARM_CM4F/portmacro.h **** portFORCE_INLINE static void vPortRaiseBASEPRI( void )
 293              		.loc 2 233 30 view .LVU66
 294              	.LBB31:
 234:Middlewares/Third_Party/FreeRTOS/Source/portable/GCC/ARM_CM4F/portmacro.h **** {
 235:Middlewares/Third_Party/FreeRTOS/Source/portable/GCC/ARM_CM4F/portmacro.h **** uint32_t ulNewBASEPRI;
 295              		.loc 2 235 1 view .LVU67
 236:Middlewares/Third_Party/FreeRTOS/Source/portable/GCC/ARM_CM4F/portmacro.h **** 
 237:Middlewares/Third_Party/FreeRTOS/Source/portable/GCC/ARM_CM4F/portmacro.h **** 	__asm volatile
 296              		.loc 2 237 2 view .LVU68
 297              		.syntax unified
 298              	@ 237 "Middlewares/Third_Party/FreeRTOS/Source/portable/GCC/ARM_CM4F/portmacro.h" 1
 299 0008 4FF05003 			mov r3, #80												
ARM GAS  C:\Users\gx\AppData\Local\Temp\ccYrhkVs.s 			page 28


 300 000c 83F31188 		msr basepri, r3											
 301 0010 BFF36F8F 		isb														
 302 0014 BFF34F8F 		dsb														
 303              	
 304              	@ 0 "" 2
 305              	.LVL27:
 306              		.thumb
 307              		.syntax unified
 308              	.L24:
 309              		.loc 2 237 2 is_stmt 0 view .LVU69
 310              	.LBE31:
 311              	.LBE30:
 396:Middlewares/Third_Party/FreeRTOS/Source/timers.c **** 
 312              		.loc 1 396 2 is_stmt 1 discriminator 1 view .LVU70
 396:Middlewares/Third_Party/FreeRTOS/Source/timers.c **** 
 313              		.loc 1 396 2 discriminator 1 view .LVU71
 396:Middlewares/Third_Party/FreeRTOS/Source/timers.c **** 
 314              		.loc 1 396 2 discriminator 1 view .LVU72
 315 0018 FEE7     		b	.L24
 316              	.LVL28:
 317              	.L23:
 396:Middlewares/Third_Party/FreeRTOS/Source/timers.c **** 
 318              		.loc 1 396 2 is_stmt 0 discriminator 1 view .LVU73
 319 001a 0746     		mov	r7, r0
 320 001c 1646     		mov	r6, r2
 321 001e 1D46     		mov	r5, r3
 322 0020 8846     		mov	r8, r1
 396:Middlewares/Third_Party/FreeRTOS/Source/timers.c **** 
 323              		.loc 1 396 45 is_stmt 1 discriminator 2 view .LVU74
 398:Middlewares/Third_Party/FreeRTOS/Source/timers.c **** 	{
 324              		.loc 1 398 2 discriminator 2 view .LVU75
 398:Middlewares/Third_Party/FreeRTOS/Source/timers.c **** 	{
 325              		.loc 1 398 4 is_stmt 0 discriminator 2 view .LVU76
 326 0022 5CB1     		cbz	r4, .L22
 402:Middlewares/Third_Party/FreeRTOS/Source/timers.c **** 
 327              		.loc 1 402 3 is_stmt 1 view .LVU77
 328 0024 FFF7FEFF 		bl	prvCheckForValidListAndQueue
 329              	.LVL29:
 406:Middlewares/Third_Party/FreeRTOS/Source/timers.c **** 		pxNewTimer->xTimerPeriodInTicks = xTimerPeriodInTicks;
 330              		.loc 1 406 3 view .LVU78
 406:Middlewares/Third_Party/FreeRTOS/Source/timers.c **** 		pxNewTimer->xTimerPeriodInTicks = xTimerPeriodInTicks;
 331              		.loc 1 406 27 is_stmt 0 view .LVU79
 332 0028 2760     		str	r7, [r4]
 407:Middlewares/Third_Party/FreeRTOS/Source/timers.c **** 		pxNewTimer->uxAutoReload = uxAutoReload;
 333              		.loc 1 407 3 is_stmt 1 view .LVU80
 407:Middlewares/Third_Party/FreeRTOS/Source/timers.c **** 		pxNewTimer->uxAutoReload = uxAutoReload;
 334              		.loc 1 407 35 is_stmt 0 view .LVU81
 335 002a C4F81880 		str	r8, [r4, #24]
 408:Middlewares/Third_Party/FreeRTOS/Source/timers.c **** 		pxNewTimer->pvTimerID = pvTimerID;
 336              		.loc 1 408 3 is_stmt 1 view .LVU82
 408:Middlewares/Third_Party/FreeRTOS/Source/timers.c **** 		pxNewTimer->pvTimerID = pvTimerID;
 337              		.loc 1 408 28 is_stmt 0 view .LVU83
 338 002e E661     		str	r6, [r4, #28]
 409:Middlewares/Third_Party/FreeRTOS/Source/timers.c **** 		pxNewTimer->pxCallbackFunction = pxCallbackFunction;
 339              		.loc 1 409 3 is_stmt 1 view .LVU84
 409:Middlewares/Third_Party/FreeRTOS/Source/timers.c **** 		pxNewTimer->pxCallbackFunction = pxCallbackFunction;
 340              		.loc 1 409 25 is_stmt 0 view .LVU85
ARM GAS  C:\Users\gx\AppData\Local\Temp\ccYrhkVs.s 			page 29


 341 0030 2562     		str	r5, [r4, #32]
 410:Middlewares/Third_Party/FreeRTOS/Source/timers.c **** 		vListInitialiseItem( &( pxNewTimer->xTimerListItem ) );
 342              		.loc 1 410 3 is_stmt 1 view .LVU86
 410:Middlewares/Third_Party/FreeRTOS/Source/timers.c **** 		vListInitialiseItem( &( pxNewTimer->xTimerListItem ) );
 343              		.loc 1 410 34 is_stmt 0 view .LVU87
 344 0032 069B     		ldr	r3, [sp, #24]
 345 0034 6362     		str	r3, [r4, #36]
 411:Middlewares/Third_Party/FreeRTOS/Source/timers.c **** 		traceTIMER_CREATE( pxNewTimer );
 346              		.loc 1 411 3 is_stmt 1 view .LVU88
 347 0036 201D     		adds	r0, r4, #4
 348 0038 FFF7FEFF 		bl	vListInitialiseItem
 349              	.LVL30:
 412:Middlewares/Third_Party/FreeRTOS/Source/timers.c **** 	}
 350              		.loc 1 412 34 view .LVU89
 351              	.L22:
 414:Middlewares/Third_Party/FreeRTOS/Source/timers.c **** /*-----------------------------------------------------------*/
 352              		.loc 1 414 1 is_stmt 0 view .LVU90
 353 003c BDE8F081 		pop	{r4, r5, r6, r7, r8, pc}
 414:Middlewares/Third_Party/FreeRTOS/Source/timers.c **** /*-----------------------------------------------------------*/
 354              		.loc 1 414 1 view .LVU91
 355              		.cfi_endproc
 356              	.LFE7:
 358              		.section	.rodata.xTimerCreateTimerTask.str1.4,"aMS",%progbits,1
 359              		.align	2
 360              	.LC1:
 361 0000 546D7220 		.ascii	"Tmr Svc\000"
 361      53766300 
 362              		.section	.text.xTimerCreateTimerTask,"ax",%progbits
 363              		.align	1
 364              		.global	xTimerCreateTimerTask
 365              		.syntax unified
 366              		.thumb
 367              		.thumb_func
 368              		.fpu fpv4-sp-d16
 370              	xTimerCreateTimerTask:
 371              	.LFB5:
 260:Middlewares/Third_Party/FreeRTOS/Source/timers.c **** BaseType_t xReturn = pdFAIL;
 372              		.loc 1 260 1 is_stmt 1 view -0
 373              		.cfi_startproc
 374              		@ args = 0, pretend = 0, frame = 0
 375              		@ frame_needed = 0, uses_anonymous_args = 0
 376 0000 00B5     		push	{lr}
 377              	.LCFI3:
 378              		.cfi_def_cfa_offset 4
 379              		.cfi_offset 14, -4
 380 0002 83B0     		sub	sp, sp, #12
 381              	.LCFI4:
 382              		.cfi_def_cfa_offset 16
 261:Middlewares/Third_Party/FreeRTOS/Source/timers.c **** 
 383              		.loc 1 261 1 view .LVU93
 384              	.LVL31:
 267:Middlewares/Third_Party/FreeRTOS/Source/timers.c **** 
 385              		.loc 1 267 2 view .LVU94
 386 0004 FFF7FEFF 		bl	prvCheckForValidListAndQueue
 387              	.LVL32:
 269:Middlewares/Third_Party/FreeRTOS/Source/timers.c **** 	{
 388              		.loc 1 269 2 view .LVU95
ARM GAS  C:\Users\gx\AppData\Local\Temp\ccYrhkVs.s 			page 30


 269:Middlewares/Third_Party/FreeRTOS/Source/timers.c **** 	{
 389              		.loc 1 269 18 is_stmt 0 view .LVU96
 390 0008 0D4B     		ldr	r3, .L32
 391 000a 1B68     		ldr	r3, [r3]
 269:Middlewares/Third_Party/FreeRTOS/Source/timers.c **** 	{
 392              		.loc 1 269 4 view .LVU97
 393 000c 5BB1     		cbz	r3, .L28
 293:Middlewares/Third_Party/FreeRTOS/Source/timers.c **** 									"Tmr Svc",
 394              		.loc 1 293 4 is_stmt 1 view .LVU98
 293:Middlewares/Third_Party/FreeRTOS/Source/timers.c **** 									"Tmr Svc",
 395              		.loc 1 293 14 is_stmt 0 view .LVU99
 396 000e 0D4B     		ldr	r3, .L32+4
 397 0010 0193     		str	r3, [sp, #4]
 398 0012 0223     		movs	r3, #2
 399 0014 0093     		str	r3, [sp]
 400 0016 0023     		movs	r3, #0
 401 0018 4FF48072 		mov	r2, #256
 402 001c 0A49     		ldr	r1, .L32+8
 403 001e 0B48     		ldr	r0, .L32+12
 404 0020 FFF7FEFF 		bl	xTaskCreate
 405              	.LVL33:
 304:Middlewares/Third_Party/FreeRTOS/Source/timers.c **** 	}
 406              		.loc 1 304 27 is_stmt 1 view .LVU100
 307:Middlewares/Third_Party/FreeRTOS/Source/timers.c **** 	return xReturn;
 407              		.loc 1 307 2 view .LVU101
 408 0024 40B9     		cbnz	r0, .L27
 409              	.LVL34:
 410              	.L28:
 307:Middlewares/Third_Party/FreeRTOS/Source/timers.c **** 	return xReturn;
 411              		.loc 1 307 2 view .LVU102
 412              	.LBB32:
 413              	.LBI32:
 233:Middlewares/Third_Party/FreeRTOS/Source/portable/GCC/ARM_CM4F/portmacro.h **** {
 414              		.loc 2 233 30 view .LVU103
 415              	.LBB33:
 235:Middlewares/Third_Party/FreeRTOS/Source/portable/GCC/ARM_CM4F/portmacro.h **** 
 416              		.loc 2 235 1 view .LVU104
 417              		.loc 2 237 2 view .LVU105
 418              		.syntax unified
 419              	@ 237 "Middlewares/Third_Party/FreeRTOS/Source/portable/GCC/ARM_CM4F/portmacro.h" 1
 420 0026 4FF05003 			mov r3, #80												
 421 002a 83F31188 		msr basepri, r3											
 422 002e BFF36F8F 		isb														
 423 0032 BFF34F8F 		dsb														
 424              	
 425              	@ 0 "" 2
 426              	.LVL35:
 427              		.thumb
 428              		.syntax unified
 429              	.L30:
 430              		.loc 2 237 2 is_stmt 0 view .LVU106
 431              	.LBE33:
 432              	.LBE32:
 307:Middlewares/Third_Party/FreeRTOS/Source/timers.c **** 	return xReturn;
 433              		.loc 1 307 2 is_stmt 1 discriminator 1 view .LVU107
 307:Middlewares/Third_Party/FreeRTOS/Source/timers.c **** 	return xReturn;
 434              		.loc 1 307 2 discriminator 1 view .LVU108
ARM GAS  C:\Users\gx\AppData\Local\Temp\ccYrhkVs.s 			page 31


 307:Middlewares/Third_Party/FreeRTOS/Source/timers.c **** 	return xReturn;
 435              		.loc 1 307 2 discriminator 1 view .LVU109
 436 0036 FEE7     		b	.L30
 437              	.LVL36:
 438              	.L27:
 309:Middlewares/Third_Party/FreeRTOS/Source/timers.c **** /*-----------------------------------------------------------*/
 439              		.loc 1 309 1 is_stmt 0 view .LVU110
 440 0038 03B0     		add	sp, sp, #12
 441              	.LCFI5:
 442              		.cfi_def_cfa_offset 4
 443              		@ sp needed
 444 003a 5DF804FB 		ldr	pc, [sp], #4
 445              	.L33:
 446 003e 00BF     		.align	2
 447              	.L32:
 448 0040 00000000 		.word	.LANCHOR2
 449 0044 00000000 		.word	.LANCHOR5
 450 0048 00000000 		.word	.LC1
 451 004c 00000000 		.word	prvTimerTask
 452              		.cfi_endproc
 453              	.LFE5:
 455              		.section	.text.xTimerCreate,"ax",%progbits
 456              		.align	1
 457              		.global	xTimerCreate
 458              		.syntax unified
 459              		.thumb
 460              		.thumb_func
 461              		.fpu fpv4-sp-d16
 463              	xTimerCreate:
 464              	.LVL37:
 465              	.LFB6:
 319:Middlewares/Third_Party/FreeRTOS/Source/timers.c **** 	Timer_t *pxNewTimer;
 466              		.loc 1 319 2 is_stmt 1 view -0
 467              		.cfi_startproc
 468              		@ args = 4, pretend = 0, frame = 0
 469              		@ frame_needed = 0, uses_anonymous_args = 0
 319:Middlewares/Third_Party/FreeRTOS/Source/timers.c **** 	Timer_t *pxNewTimer;
 470              		.loc 1 319 2 is_stmt 0 view .LVU112
 471 0000 2DE9F041 		push	{r4, r5, r6, r7, r8, lr}
 472              	.LCFI6:
 473              		.cfi_def_cfa_offset 24
 474              		.cfi_offset 4, -24
 475              		.cfi_offset 5, -20
 476              		.cfi_offset 6, -16
 477              		.cfi_offset 7, -12
 478              		.cfi_offset 8, -8
 479              		.cfi_offset 14, -4
 480 0004 82B0     		sub	sp, sp, #8
 481              	.LCFI7:
 482              		.cfi_def_cfa_offset 32
 483 0006 0446     		mov	r4, r0
 484 0008 8846     		mov	r8, r1
 485 000a 1546     		mov	r5, r2
 486 000c 1E46     		mov	r6, r3
 320:Middlewares/Third_Party/FreeRTOS/Source/timers.c **** 
 487              		.loc 1 320 2 is_stmt 1 view .LVU113
 322:Middlewares/Third_Party/FreeRTOS/Source/timers.c **** 
ARM GAS  C:\Users\gx\AppData\Local\Temp\ccYrhkVs.s 			page 32


 488              		.loc 1 322 3 view .LVU114
 322:Middlewares/Third_Party/FreeRTOS/Source/timers.c **** 
 489              		.loc 1 322 30 is_stmt 0 view .LVU115
 490 000e 2820     		movs	r0, #40
 491              	.LVL38:
 322:Middlewares/Third_Party/FreeRTOS/Source/timers.c **** 
 492              		.loc 1 322 30 view .LVU116
 493 0010 FFF7FEFF 		bl	pvPortMalloc
 494              	.LVL39:
 324:Middlewares/Third_Party/FreeRTOS/Source/timers.c **** 		{
 495              		.loc 1 324 3 is_stmt 1 view .LVU117
 324:Middlewares/Third_Party/FreeRTOS/Source/timers.c **** 		{
 496              		.loc 1 324 5 is_stmt 0 view .LVU118
 497 0014 0746     		mov	r7, r0
 498 0016 40B1     		cbz	r0, .L34
 326:Middlewares/Third_Party/FreeRTOS/Source/timers.c **** 
 499              		.loc 1 326 4 is_stmt 1 view .LVU119
 500 0018 0190     		str	r0, [sp, #4]
 501 001a 089B     		ldr	r3, [sp, #32]
 502 001c 0093     		str	r3, [sp]
 503 001e 3346     		mov	r3, r6
 504 0020 2A46     		mov	r2, r5
 505 0022 4146     		mov	r1, r8
 506 0024 2046     		mov	r0, r4
 507              	.LVL40:
 326:Middlewares/Third_Party/FreeRTOS/Source/timers.c **** 
 508              		.loc 1 326 4 is_stmt 0 view .LVU120
 509 0026 FFF7FEFF 		bl	prvInitialiseNewTimer
 510              	.LVL41:
 338:Middlewares/Third_Party/FreeRTOS/Source/timers.c **** 	}
 511              		.loc 1 338 3 is_stmt 1 view .LVU121
 512              	.L34:
 339:Middlewares/Third_Party/FreeRTOS/Source/timers.c **** 
 513              		.loc 1 339 2 is_stmt 0 view .LVU122
 514 002a 3846     		mov	r0, r7
 515 002c 02B0     		add	sp, sp, #8
 516              	.LCFI8:
 517              		.cfi_def_cfa_offset 24
 518              		@ sp needed
 519 002e BDE8F081 		pop	{r4, r5, r6, r7, r8, pc}
 339:Middlewares/Third_Party/FreeRTOS/Source/timers.c **** 
 520              		.loc 1 339 2 view .LVU123
 521              		.cfi_endproc
 522              	.LFE6:
 524              		.section	.text.xTimerGenericCommand,"ax",%progbits
 525              		.align	1
 526              		.global	xTimerGenericCommand
 527              		.syntax unified
 528              		.thumb
 529              		.thumb_func
 530              		.fpu fpv4-sp-d16
 532              	xTimerGenericCommand:
 533              	.LVL42:
 534              	.LFB8:
 418:Middlewares/Third_Party/FreeRTOS/Source/timers.c **** BaseType_t xReturn = pdFAIL;
 535              		.loc 1 418 1 is_stmt 1 view -0
 536              		.cfi_startproc
ARM GAS  C:\Users\gx\AppData\Local\Temp\ccYrhkVs.s 			page 33


 537              		@ args = 4, pretend = 0, frame = 16
 538              		@ frame_needed = 0, uses_anonymous_args = 0
 419:Middlewares/Third_Party/FreeRTOS/Source/timers.c **** DaemonTaskMessage_t xMessage;
 539              		.loc 1 419 1 view .LVU125
 420:Middlewares/Third_Party/FreeRTOS/Source/timers.c **** 
 540              		.loc 1 420 1 view .LVU126
 422:Middlewares/Third_Party/FreeRTOS/Source/timers.c **** 
 541              		.loc 1 422 2 view .LVU127
 542 0000 C0B1     		cbz	r0, .L46
 418:Middlewares/Third_Party/FreeRTOS/Source/timers.c **** BaseType_t xReturn = pdFAIL;
 543              		.loc 1 418 1 is_stmt 0 discriminator 2 view .LVU128
 544 0002 10B5     		push	{r4, lr}
 545              	.LCFI9:
 546              		.cfi_def_cfa_offset 8
 547              		.cfi_offset 4, -8
 548              		.cfi_offset 14, -4
 549 0004 84B0     		sub	sp, sp, #16
 550              	.LCFI10:
 551              		.cfi_def_cfa_offset 24
 552 0006 1446     		mov	r4, r2
 553 0008 1A46     		mov	r2, r3
 554              	.LVL43:
 418:Middlewares/Third_Party/FreeRTOS/Source/timers.c **** BaseType_t xReturn = pdFAIL;
 555              		.loc 1 418 1 discriminator 2 view .LVU129
 556 000a 0346     		mov	r3, r0
 557              	.LVL44:
 422:Middlewares/Third_Party/FreeRTOS/Source/timers.c **** 
 558              		.loc 1 422 24 is_stmt 1 discriminator 2 view .LVU130
 426:Middlewares/Third_Party/FreeRTOS/Source/timers.c **** 	{
 559              		.loc 1 426 2 discriminator 2 view .LVU131
 426:Middlewares/Third_Party/FreeRTOS/Source/timers.c **** 	{
 560              		.loc 1 426 18 is_stmt 0 discriminator 2 view .LVU132
 561 000c 1648     		ldr	r0, .L48
 562              	.LVL45:
 426:Middlewares/Third_Party/FreeRTOS/Source/timers.c **** 	{
 563              		.loc 1 426 18 discriminator 2 view .LVU133
 564 000e 0068     		ldr	r0, [r0]
 426:Middlewares/Third_Party/FreeRTOS/Source/timers.c **** 	{
 565              		.loc 1 426 4 discriminator 2 view .LVU134
 566 0010 38B3     		cbz	r0, .L43
 429:Middlewares/Third_Party/FreeRTOS/Source/timers.c **** 		xMessage.u.xTimerParameters.xMessageValue = xOptionalValue;
 567              		.loc 1 429 3 is_stmt 1 view .LVU135
 429:Middlewares/Third_Party/FreeRTOS/Source/timers.c **** 		xMessage.u.xTimerParameters.xMessageValue = xOptionalValue;
 568              		.loc 1 429 23 is_stmt 0 view .LVU136
 569 0012 0191     		str	r1, [sp, #4]
 430:Middlewares/Third_Party/FreeRTOS/Source/timers.c **** 		xMessage.u.xTimerParameters.pxTimer = ( Timer_t * ) xTimer;
 570              		.loc 1 430 3 is_stmt 1 view .LVU137
 430:Middlewares/Third_Party/FreeRTOS/Source/timers.c **** 		xMessage.u.xTimerParameters.pxTimer = ( Timer_t * ) xTimer;
 571              		.loc 1 430 45 is_stmt 0 view .LVU138
 572 0014 0294     		str	r4, [sp, #8]
 431:Middlewares/Third_Party/FreeRTOS/Source/timers.c **** 
 573              		.loc 1 431 3 is_stmt 1 view .LVU139
 431:Middlewares/Third_Party/FreeRTOS/Source/timers.c **** 
 574              		.loc 1 431 39 is_stmt 0 view .LVU140
 575 0016 0393     		str	r3, [sp, #12]
 433:Middlewares/Third_Party/FreeRTOS/Source/timers.c **** 		{
 576              		.loc 1 433 3 is_stmt 1 view .LVU141
ARM GAS  C:\Users\gx\AppData\Local\Temp\ccYrhkVs.s 			page 34


 433:Middlewares/Third_Party/FreeRTOS/Source/timers.c **** 		{
 577              		.loc 1 433 5 is_stmt 0 view .LVU142
 578 0018 0529     		cmp	r1, #5
 579 001a 1CDC     		bgt	.L41
 435:Middlewares/Third_Party/FreeRTOS/Source/timers.c **** 			{
 580              		.loc 1 435 4 is_stmt 1 view .LVU143
 435:Middlewares/Third_Party/FreeRTOS/Source/timers.c **** 			{
 581              		.loc 1 435 8 is_stmt 0 view .LVU144
 582 001c FFF7FEFF 		bl	xTaskGetSchedulerState
 583              	.LVL46:
 435:Middlewares/Third_Party/FreeRTOS/Source/timers.c **** 			{
 584              		.loc 1 435 6 view .LVU145
 585 0020 0228     		cmp	r0, #2
 586 0022 10D0     		beq	.L47
 441:Middlewares/Third_Party/FreeRTOS/Source/timers.c **** 			}
 587              		.loc 1 441 5 is_stmt 1 view .LVU146
 441:Middlewares/Third_Party/FreeRTOS/Source/timers.c **** 			}
 588              		.loc 1 441 15 is_stmt 0 view .LVU147
 589 0024 0023     		movs	r3, #0
 590 0026 1A46     		mov	r2, r3
 591 0028 01A9     		add	r1, sp, #4
 592 002a 0F48     		ldr	r0, .L48
 593 002c 0068     		ldr	r0, [r0]
 594 002e FFF7FEFF 		bl	xQueueGenericSend
 595              	.LVL47:
 441:Middlewares/Third_Party/FreeRTOS/Source/timers.c **** 			}
 596              		.loc 1 441 15 view .LVU148
 597 0032 14E0     		b	.L37
 598              	.LVL48:
 599              	.L46:
 600              	.LCFI11:
 601              		.cfi_def_cfa_offset 0
 602              		.cfi_restore 4
 603              		.cfi_restore 14
 422:Middlewares/Third_Party/FreeRTOS/Source/timers.c **** 
 604              		.loc 1 422 2 is_stmt 1 view .LVU149
 605              	.LBB34:
 606              	.LBI34:
 233:Middlewares/Third_Party/FreeRTOS/Source/portable/GCC/ARM_CM4F/portmacro.h **** {
 607              		.loc 2 233 30 view .LVU150
 608              	.LBB35:
 235:Middlewares/Third_Party/FreeRTOS/Source/portable/GCC/ARM_CM4F/portmacro.h **** 
 609              		.loc 2 235 1 view .LVU151
 610              		.loc 2 237 2 view .LVU152
 611              		.syntax unified
 612              	@ 237 "Middlewares/Third_Party/FreeRTOS/Source/portable/GCC/ARM_CM4F/portmacro.h" 1
 613 0034 4FF05003 			mov r3, #80												
 614 0038 83F31188 		msr basepri, r3											
 615 003c BFF36F8F 		isb														
 616 0040 BFF34F8F 		dsb														
 617              	
 618              	@ 0 "" 2
 619              	.LVL49:
 620              		.thumb
 621              		.syntax unified
 622              	.L39:
 623              		.loc 2 237 2 is_stmt 0 view .LVU153
ARM GAS  C:\Users\gx\AppData\Local\Temp\ccYrhkVs.s 			page 35


 624              	.LBE35:
 625              	.LBE34:
 422:Middlewares/Third_Party/FreeRTOS/Source/timers.c **** 
 626              		.loc 1 422 2 is_stmt 1 discriminator 1 view .LVU154
 422:Middlewares/Third_Party/FreeRTOS/Source/timers.c **** 
 627              		.loc 1 422 2 discriminator 1 view .LVU155
 422:Middlewares/Third_Party/FreeRTOS/Source/timers.c **** 
 628              		.loc 1 422 2 discriminator 1 view .LVU156
 629 0044 FEE7     		b	.L39
 630              	.LVL50:
 631              	.L47:
 632              	.LCFI12:
 633              		.cfi_def_cfa_offset 24
 634              		.cfi_offset 4, -8
 635              		.cfi_offset 14, -4
 437:Middlewares/Third_Party/FreeRTOS/Source/timers.c **** 			}
 636              		.loc 1 437 5 view .LVU157
 437:Middlewares/Third_Party/FreeRTOS/Source/timers.c **** 			}
 637              		.loc 1 437 15 is_stmt 0 view .LVU158
 638 0046 0023     		movs	r3, #0
 639 0048 069A     		ldr	r2, [sp, #24]
 640 004a 01A9     		add	r1, sp, #4
 641 004c 0648     		ldr	r0, .L48
 642 004e 0068     		ldr	r0, [r0]
 643 0050 FFF7FEFF 		bl	xQueueGenericSend
 644              	.LVL51:
 437:Middlewares/Third_Party/FreeRTOS/Source/timers.c **** 			}
 645              		.loc 1 437 15 view .LVU159
 646 0054 03E0     		b	.L37
 647              	.LVL52:
 648              	.L41:
 446:Middlewares/Third_Party/FreeRTOS/Source/timers.c **** 		}
 649              		.loc 1 446 4 is_stmt 1 view .LVU160
 446:Middlewares/Third_Party/FreeRTOS/Source/timers.c **** 		}
 650              		.loc 1 446 14 is_stmt 0 view .LVU161
 651 0056 0023     		movs	r3, #0
 652              	.LVL53:
 446:Middlewares/Third_Party/FreeRTOS/Source/timers.c **** 		}
 653              		.loc 1 446 14 view .LVU162
 654 0058 01A9     		add	r1, sp, #4
 655              	.LVL54:
 446:Middlewares/Third_Party/FreeRTOS/Source/timers.c **** 		}
 656              		.loc 1 446 14 view .LVU163
 657 005a FFF7FEFF 		bl	xQueueGenericSendFromISR
 658              	.LVL55:
 659              	.L37:
 457:Middlewares/Third_Party/FreeRTOS/Source/timers.c **** /*-----------------------------------------------------------*/
 660              		.loc 1 457 1 view .LVU164
 661 005e 04B0     		add	sp, sp, #16
 662              	.LCFI13:
 663              		.cfi_remember_state
 664              		.cfi_def_cfa_offset 8
 665              		@ sp needed
 666 0060 10BD     		pop	{r4, pc}
 667              	.LVL56:
 668              	.L43:
 669              	.LCFI14:
ARM GAS  C:\Users\gx\AppData\Local\Temp\ccYrhkVs.s 			page 36


 670              		.cfi_restore_state
 419:Middlewares/Third_Party/FreeRTOS/Source/timers.c **** DaemonTaskMessage_t xMessage;
 671              		.loc 1 419 12 view .LVU165
 672 0062 0020     		movs	r0, #0
 453:Middlewares/Third_Party/FreeRTOS/Source/timers.c **** 	}
 673              		.loc 1 453 27 is_stmt 1 view .LVU166
 456:Middlewares/Third_Party/FreeRTOS/Source/timers.c **** }
 674              		.loc 1 456 2 view .LVU167
 456:Middlewares/Third_Party/FreeRTOS/Source/timers.c **** }
 675              		.loc 1 456 9 is_stmt 0 view .LVU168
 676 0064 FBE7     		b	.L37
 677              	.L49:
 678 0066 00BF     		.align	2
 679              	.L48:
 680 0068 00000000 		.word	.LANCHOR2
 681              		.cfi_endproc
 682              	.LFE8:
 684              		.section	.text.prvSwitchTimerLists,"ax",%progbits
 685              		.align	1
 686              		.syntax unified
 687              		.thumb
 688              		.thumb_func
 689              		.fpu fpv4-sp-d16
 691              	prvSwitchTimerLists:
 692              	.LFB20:
 872:Middlewares/Third_Party/FreeRTOS/Source/timers.c **** TickType_t xNextExpireTime, xReloadTime;
 693              		.loc 1 872 1 is_stmt 1 view -0
 694              		.cfi_startproc
 695              		@ args = 0, pretend = 0, frame = 0
 696              		@ frame_needed = 0, uses_anonymous_args = 0
 697 0000 70B5     		push	{r4, r5, r6, lr}
 698              	.LCFI15:
 699              		.cfi_def_cfa_offset 16
 700              		.cfi_offset 4, -16
 701              		.cfi_offset 5, -12
 702              		.cfi_offset 6, -8
 703              		.cfi_offset 14, -4
 704 0002 82B0     		sub	sp, sp, #8
 705              	.LCFI16:
 706              		.cfi_def_cfa_offset 24
 873:Middlewares/Third_Party/FreeRTOS/Source/timers.c **** List_t *pxTemp;
 707              		.loc 1 873 1 view .LVU170
 874:Middlewares/Third_Party/FreeRTOS/Source/timers.c **** Timer_t *pxTimer;
 708              		.loc 1 874 1 view .LVU171
 875:Middlewares/Third_Party/FreeRTOS/Source/timers.c **** BaseType_t xResult;
 709              		.loc 1 875 1 view .LVU172
 876:Middlewares/Third_Party/FreeRTOS/Source/timers.c **** 
 710              		.loc 1 876 1 view .LVU173
 882:Middlewares/Third_Party/FreeRTOS/Source/timers.c **** 	{
 711              		.loc 1 882 2 view .LVU174
 712              	.L52:
 920:Middlewares/Third_Party/FreeRTOS/Source/timers.c **** 		}
 713              		.loc 1 920 28 view .LVU175
 882:Middlewares/Third_Party/FreeRTOS/Source/timers.c **** 	{
 714              		.loc 1 882 7 view .LVU176
 882:Middlewares/Third_Party/FreeRTOS/Source/timers.c **** 	{
 715              		.loc 1 882 9 is_stmt 0 view .LVU177
ARM GAS  C:\Users\gx\AppData\Local\Temp\ccYrhkVs.s 			page 37


 716 0004 1A4B     		ldr	r3, .L59
 717 0006 1B68     		ldr	r3, [r3]
 718 0008 1A68     		ldr	r2, [r3]
 882:Middlewares/Third_Party/FreeRTOS/Source/timers.c **** 	{
 719              		.loc 1 882 7 view .LVU178
 720 000a 52B3     		cbz	r2, .L58
 884:Middlewares/Third_Party/FreeRTOS/Source/timers.c **** 
 721              		.loc 1 884 3 is_stmt 1 view .LVU179
 884:Middlewares/Third_Party/FreeRTOS/Source/timers.c **** 
 722              		.loc 1 884 21 is_stmt 0 view .LVU180
 723 000c DB68     		ldr	r3, [r3, #12]
 884:Middlewares/Third_Party/FreeRTOS/Source/timers.c **** 
 724              		.loc 1 884 19 view .LVU181
 725 000e 1E68     		ldr	r6, [r3]
 726              	.LVL57:
 887:Middlewares/Third_Party/FreeRTOS/Source/timers.c **** 		( void ) uxListRemove( &( pxTimer->xTimerListItem ) );
 727              		.loc 1 887 3 is_stmt 1 view .LVU182
 887:Middlewares/Third_Party/FreeRTOS/Source/timers.c **** 		( void ) uxListRemove( &( pxTimer->xTimerListItem ) );
 728              		.loc 1 887 11 is_stmt 0 view .LVU183
 729 0010 DC68     		ldr	r4, [r3, #12]
 730              	.LVL58:
 888:Middlewares/Third_Party/FreeRTOS/Source/timers.c **** 		traceTIMER_EXPIRED( pxTimer );
 731              		.loc 1 888 3 is_stmt 1 view .LVU184
 888:Middlewares/Third_Party/FreeRTOS/Source/timers.c **** 		traceTIMER_EXPIRED( pxTimer );
 732              		.loc 1 888 12 is_stmt 0 view .LVU185
 733 0012 251D     		adds	r5, r4, #4
 734 0014 2846     		mov	r0, r5
 735 0016 FFF7FEFF 		bl	uxListRemove
 736              	.LVL59:
 889:Middlewares/Third_Party/FreeRTOS/Source/timers.c **** 
 737              		.loc 1 889 32 is_stmt 1 view .LVU186
 894:Middlewares/Third_Party/FreeRTOS/Source/timers.c **** 
 738              		.loc 1 894 3 view .LVU187
 894:Middlewares/Third_Party/FreeRTOS/Source/timers.c **** 
 739              		.loc 1 894 10 is_stmt 0 view .LVU188
 740 001a 636A     		ldr	r3, [r4, #36]
 894:Middlewares/Third_Party/FreeRTOS/Source/timers.c **** 
 741              		.loc 1 894 3 view .LVU189
 742 001c 2046     		mov	r0, r4
 743 001e 9847     		blx	r3
 744              	.LVL60:
 896:Middlewares/Third_Party/FreeRTOS/Source/timers.c **** 		{
 745              		.loc 1 896 3 is_stmt 1 view .LVU190
 896:Middlewares/Third_Party/FreeRTOS/Source/timers.c **** 		{
 746              		.loc 1 896 14 is_stmt 0 view .LVU191
 747 0020 E369     		ldr	r3, [r4, #28]
 896:Middlewares/Third_Party/FreeRTOS/Source/timers.c **** 		{
 748              		.loc 1 896 5 view .LVU192
 749 0022 012B     		cmp	r3, #1
 750 0024 EED1     		bne	.L52
 904:Middlewares/Third_Party/FreeRTOS/Source/timers.c **** 			if( xReloadTime > xNextExpireTime )
 751              		.loc 1 904 4 is_stmt 1 view .LVU193
 904:Middlewares/Third_Party/FreeRTOS/Source/timers.c **** 			if( xReloadTime > xNextExpireTime )
 752              		.loc 1 904 45 is_stmt 0 view .LVU194
 753 0026 A369     		ldr	r3, [r4, #24]
 904:Middlewares/Third_Party/FreeRTOS/Source/timers.c **** 			if( xReloadTime > xNextExpireTime )
 754              		.loc 1 904 16 view .LVU195
ARM GAS  C:\Users\gx\AppData\Local\Temp\ccYrhkVs.s 			page 38


 755 0028 3344     		add	r3, r3, r6
 756              	.LVL61:
 905:Middlewares/Third_Party/FreeRTOS/Source/timers.c **** 			{
 757              		.loc 1 905 4 is_stmt 1 view .LVU196
 905:Middlewares/Third_Party/FreeRTOS/Source/timers.c **** 			{
 758              		.loc 1 905 6 is_stmt 0 view .LVU197
 759 002a 9E42     		cmp	r6, r3
 760 002c 07D2     		bcs	.L53
 907:Middlewares/Third_Party/FreeRTOS/Source/timers.c **** 				listSET_LIST_ITEM_OWNER( &( pxTimer->xTimerListItem ), pxTimer );
 761              		.loc 1 907 5 is_stmt 1 view .LVU198
 762 002e 6360     		str	r3, [r4, #4]
 908:Middlewares/Third_Party/FreeRTOS/Source/timers.c **** 				vListInsert( pxCurrentTimerList, &( pxTimer->xTimerListItem ) );
 763              		.loc 1 908 5 view .LVU199
 764 0030 2461     		str	r4, [r4, #16]
 909:Middlewares/Third_Party/FreeRTOS/Source/timers.c **** 			}
 765              		.loc 1 909 5 view .LVU200
 766 0032 2946     		mov	r1, r5
 767 0034 0E4B     		ldr	r3, .L59
 768              	.LVL62:
 909:Middlewares/Third_Party/FreeRTOS/Source/timers.c **** 			}
 769              		.loc 1 909 5 is_stmt 0 view .LVU201
 770 0036 1868     		ldr	r0, [r3]
 771 0038 FFF7FEFF 		bl	vListInsert
 772              	.LVL63:
 909:Middlewares/Third_Party/FreeRTOS/Source/timers.c **** 			}
 773              		.loc 1 909 5 view .LVU202
 774 003c E2E7     		b	.L52
 775              	.LVL64:
 776              	.L53:
 913:Middlewares/Third_Party/FreeRTOS/Source/timers.c **** 				configASSERT( xResult );
 777              		.loc 1 913 5 is_stmt 1 view .LVU203
 913:Middlewares/Third_Party/FreeRTOS/Source/timers.c **** 				configASSERT( xResult );
 778              		.loc 1 913 15 is_stmt 0 view .LVU204
 779 003e 0021     		movs	r1, #0
 780 0040 0091     		str	r1, [sp]
 781 0042 0B46     		mov	r3, r1
 782              	.LVL65:
 913:Middlewares/Third_Party/FreeRTOS/Source/timers.c **** 				configASSERT( xResult );
 783              		.loc 1 913 15 view .LVU205
 784 0044 3246     		mov	r2, r6
 785 0046 2046     		mov	r0, r4
 786 0048 FFF7FEFF 		bl	xTimerGenericCommand
 787              	.LVL66:
 914:Middlewares/Third_Party/FreeRTOS/Source/timers.c **** 				( void ) xResult;
 788              		.loc 1 914 5 is_stmt 1 view .LVU206
 789 004c 0028     		cmp	r0, #0
 790 004e D9D1     		bne	.L52
 914:Middlewares/Third_Party/FreeRTOS/Source/timers.c **** 				( void ) xResult;
 791              		.loc 1 914 5 view .LVU207
 792              	.LBB36:
 793              	.LBI36:
 233:Middlewares/Third_Party/FreeRTOS/Source/portable/GCC/ARM_CM4F/portmacro.h **** {
 794              		.loc 2 233 30 view .LVU208
 795              	.LBB37:
 235:Middlewares/Third_Party/FreeRTOS/Source/portable/GCC/ARM_CM4F/portmacro.h **** 
 796              		.loc 2 235 1 view .LVU209
 797              		.loc 2 237 2 view .LVU210
ARM GAS  C:\Users\gx\AppData\Local\Temp\ccYrhkVs.s 			page 39


 798              		.syntax unified
 799              	@ 237 "Middlewares/Third_Party/FreeRTOS/Source/portable/GCC/ARM_CM4F/portmacro.h" 1
 800 0050 4FF05003 			mov r3, #80												
 801 0054 83F31188 		msr basepri, r3											
 802 0058 BFF36F8F 		isb														
 803 005c BFF34F8F 		dsb														
 804              	
 805              	@ 0 "" 2
 806              	.LVL67:
 807              		.thumb
 808              		.syntax unified
 809              	.L55:
 810              		.loc 2 237 2 is_stmt 0 view .LVU211
 811              	.LBE37:
 812              	.LBE36:
 914:Middlewares/Third_Party/FreeRTOS/Source/timers.c **** 				( void ) xResult;
 813              		.loc 1 914 5 is_stmt 1 discriminator 1 view .LVU212
 914:Middlewares/Third_Party/FreeRTOS/Source/timers.c **** 				( void ) xResult;
 814              		.loc 1 914 5 discriminator 1 view .LVU213
 914:Middlewares/Third_Party/FreeRTOS/Source/timers.c **** 				( void ) xResult;
 815              		.loc 1 914 5 discriminator 1 view .LVU214
 816 0060 FEE7     		b	.L55
 817              	.LVL68:
 818              	.L58:
 924:Middlewares/Third_Party/FreeRTOS/Source/timers.c **** 	pxCurrentTimerList = pxOverflowTimerList;
 819              		.loc 1 924 2 view .LVU215
 925:Middlewares/Third_Party/FreeRTOS/Source/timers.c **** 	pxOverflowTimerList = pxTemp;
 820              		.loc 1 925 2 view .LVU216
 925:Middlewares/Third_Party/FreeRTOS/Source/timers.c **** 	pxOverflowTimerList = pxTemp;
 821              		.loc 1 925 21 is_stmt 0 view .LVU217
 822 0062 044A     		ldr	r2, .L59+4
 823 0064 1068     		ldr	r0, [r2]
 824 0066 0249     		ldr	r1, .L59
 825 0068 0860     		str	r0, [r1]
 926:Middlewares/Third_Party/FreeRTOS/Source/timers.c **** }
 826              		.loc 1 926 2 is_stmt 1 view .LVU218
 926:Middlewares/Third_Party/FreeRTOS/Source/timers.c **** }
 827              		.loc 1 926 22 is_stmt 0 view .LVU219
 828 006a 1360     		str	r3, [r2]
 927:Middlewares/Third_Party/FreeRTOS/Source/timers.c **** /*-----------------------------------------------------------*/
 829              		.loc 1 927 1 view .LVU220
 830 006c 02B0     		add	sp, sp, #8
 831              	.LCFI17:
 832              		.cfi_def_cfa_offset 16
 833              		@ sp needed
 834 006e 70BD     		pop	{r4, r5, r6, pc}
 835              	.L60:
 836              		.align	2
 837              	.L59:
 838 0070 00000000 		.word	.LANCHOR0
 839 0074 00000000 		.word	.LANCHOR1
 840              		.cfi_endproc
 841              	.LFE20:
 843              		.section	.text.prvSampleTimeNow,"ax",%progbits
 844              		.align	1
 845              		.syntax unified
 846              		.thumb
ARM GAS  C:\Users\gx\AppData\Local\Temp\ccYrhkVs.s 			page 40


 847              		.thumb_func
 848              		.fpu fpv4-sp-d16
 850              	prvSampleTimeNow:
 851              	.LVL69:
 852              	.LFB17:
 661:Middlewares/Third_Party/FreeRTOS/Source/timers.c **** TickType_t xTimeNow;
 853              		.loc 1 661 1 is_stmt 1 view -0
 854              		.cfi_startproc
 855              		@ args = 0, pretend = 0, frame = 0
 856              		@ frame_needed = 0, uses_anonymous_args = 0
 661:Middlewares/Third_Party/FreeRTOS/Source/timers.c **** TickType_t xTimeNow;
 857              		.loc 1 661 1 is_stmt 0 view .LVU222
 858 0000 38B5     		push	{r3, r4, r5, lr}
 859              	.LCFI18:
 860              		.cfi_def_cfa_offset 16
 861              		.cfi_offset 3, -16
 862              		.cfi_offset 4, -12
 863              		.cfi_offset 5, -8
 864              		.cfi_offset 14, -4
 865 0002 0546     		mov	r5, r0
 662:Middlewares/Third_Party/FreeRTOS/Source/timers.c **** PRIVILEGED_INITIALIZED_DATA static TickType_t xLastTime = ( TickType_t ) 0U; /*lint !e956 Variable 
 866              		.loc 1 662 1 is_stmt 1 view .LVU223
 663:Middlewares/Third_Party/FreeRTOS/Source/timers.c **** 
 867              		.loc 1 663 29 view .LVU224
 665:Middlewares/Third_Party/FreeRTOS/Source/timers.c **** 
 868              		.loc 1 665 2 view .LVU225
 665:Middlewares/Third_Party/FreeRTOS/Source/timers.c **** 
 869              		.loc 1 665 13 is_stmt 0 view .LVU226
 870 0004 FFF7FEFF 		bl	xTaskGetTickCount
 871              	.LVL70:
 665:Middlewares/Third_Party/FreeRTOS/Source/timers.c **** 
 872              		.loc 1 665 13 view .LVU227
 873 0008 0446     		mov	r4, r0
 874              	.LVL71:
 667:Middlewares/Third_Party/FreeRTOS/Source/timers.c **** 	{
 875              		.loc 1 667 2 is_stmt 1 view .LVU228
 667:Middlewares/Third_Party/FreeRTOS/Source/timers.c **** 	{
 876              		.loc 1 667 15 is_stmt 0 view .LVU229
 877 000a 074B     		ldr	r3, .L66
 878 000c 1B68     		ldr	r3, [r3]
 667:Middlewares/Third_Party/FreeRTOS/Source/timers.c **** 	{
 879              		.loc 1 667 4 view .LVU230
 880 000e 8342     		cmp	r3, r0
 881 0010 05D8     		bhi	.L65
 674:Middlewares/Third_Party/FreeRTOS/Source/timers.c **** 	}
 882              		.loc 1 674 3 is_stmt 1 view .LVU231
 674:Middlewares/Third_Party/FreeRTOS/Source/timers.c **** 	}
 883              		.loc 1 674 29 is_stmt 0 view .LVU232
 884 0012 0023     		movs	r3, #0
 885 0014 2B60     		str	r3, [r5]
 886              	.LVL72:
 887              	.L63:
 677:Middlewares/Third_Party/FreeRTOS/Source/timers.c **** 
 888              		.loc 1 677 2 is_stmt 1 view .LVU233
 677:Middlewares/Third_Party/FreeRTOS/Source/timers.c **** 
 889              		.loc 1 677 12 is_stmt 0 view .LVU234
 890 0016 044B     		ldr	r3, .L66
ARM GAS  C:\Users\gx\AppData\Local\Temp\ccYrhkVs.s 			page 41


 891 0018 1C60     		str	r4, [r3]
 679:Middlewares/Third_Party/FreeRTOS/Source/timers.c **** }
 892              		.loc 1 679 2 is_stmt 1 view .LVU235
 680:Middlewares/Third_Party/FreeRTOS/Source/timers.c **** /*-----------------------------------------------------------*/
 893              		.loc 1 680 1 is_stmt 0 view .LVU236
 894 001a 2046     		mov	r0, r4
 895 001c 38BD     		pop	{r3, r4, r5, pc}
 896              	.LVL73:
 897              	.L65:
 669:Middlewares/Third_Party/FreeRTOS/Source/timers.c **** 		*pxTimerListsWereSwitched = pdTRUE;
 898              		.loc 1 669 3 is_stmt 1 view .LVU237
 899 001e FFF7FEFF 		bl	prvSwitchTimerLists
 900              	.LVL74:
 670:Middlewares/Third_Party/FreeRTOS/Source/timers.c **** 	}
 901              		.loc 1 670 3 view .LVU238
 670:Middlewares/Third_Party/FreeRTOS/Source/timers.c **** 	}
 902              		.loc 1 670 29 is_stmt 0 view .LVU239
 903 0022 0123     		movs	r3, #1
 904 0024 2B60     		str	r3, [r5]
 905 0026 F6E7     		b	.L63
 906              	.L67:
 907              		.align	2
 908              	.L66:
 909 0028 00000000 		.word	.LANCHOR6
 910              		.cfi_endproc
 911              	.LFE17:
 913              		.section	.text.prvProcessExpiredTimer,"ax",%progbits
 914              		.align	1
 915              		.syntax unified
 916              		.thumb
 917              		.thumb_func
 918              		.fpu fpv4-sp-d16
 920              	prvProcessExpiredTimer:
 921              	.LVL75:
 922              	.LFB13:
 499:Middlewares/Third_Party/FreeRTOS/Source/timers.c **** BaseType_t xResult;
 923              		.loc 1 499 1 is_stmt 1 view -0
 924              		.cfi_startproc
 925              		@ args = 0, pretend = 0, frame = 0
 926              		@ frame_needed = 0, uses_anonymous_args = 0
 499:Middlewares/Third_Party/FreeRTOS/Source/timers.c **** BaseType_t xResult;
 927              		.loc 1 499 1 is_stmt 0 view .LVU241
 928 0000 70B5     		push	{r4, r5, r6, lr}
 929              	.LCFI19:
 930              		.cfi_def_cfa_offset 16
 931              		.cfi_offset 4, -16
 932              		.cfi_offset 5, -12
 933              		.cfi_offset 6, -8
 934              		.cfi_offset 14, -4
 935 0002 82B0     		sub	sp, sp, #8
 936              	.LCFI20:
 937              		.cfi_def_cfa_offset 24
 938 0004 0546     		mov	r5, r0
 939 0006 0E46     		mov	r6, r1
 500:Middlewares/Third_Party/FreeRTOS/Source/timers.c **** Timer_t * const pxTimer = ( Timer_t * ) listGET_OWNER_OF_HEAD_ENTRY( pxCurrentTimerList );
 940              		.loc 1 500 1 is_stmt 1 view .LVU242
 501:Middlewares/Third_Party/FreeRTOS/Source/timers.c **** 
ARM GAS  C:\Users\gx\AppData\Local\Temp\ccYrhkVs.s 			page 42


 941              		.loc 1 501 1 view .LVU243
 501:Middlewares/Third_Party/FreeRTOS/Source/timers.c **** 
 942              		.loc 1 501 41 is_stmt 0 view .LVU244
 943 0008 144B     		ldr	r3, .L73
 944 000a 1B68     		ldr	r3, [r3]
 945 000c DB68     		ldr	r3, [r3, #12]
 501:Middlewares/Third_Party/FreeRTOS/Source/timers.c **** 
 946              		.loc 1 501 17 view .LVU245
 947 000e DC68     		ldr	r4, [r3, #12]
 948              	.LVL76:
 505:Middlewares/Third_Party/FreeRTOS/Source/timers.c **** 	traceTIMER_EXPIRED( pxTimer );
 949              		.loc 1 505 2 is_stmt 1 view .LVU246
 505:Middlewares/Third_Party/FreeRTOS/Source/timers.c **** 	traceTIMER_EXPIRED( pxTimer );
 950              		.loc 1 505 11 is_stmt 0 view .LVU247
 951 0010 201D     		adds	r0, r4, #4
 952              	.LVL77:
 505:Middlewares/Third_Party/FreeRTOS/Source/timers.c **** 	traceTIMER_EXPIRED( pxTimer );
 953              		.loc 1 505 11 view .LVU248
 954 0012 FFF7FEFF 		bl	uxListRemove
 955              	.LVL78:
 506:Middlewares/Third_Party/FreeRTOS/Source/timers.c **** 
 956              		.loc 1 506 31 is_stmt 1 view .LVU249
 510:Middlewares/Third_Party/FreeRTOS/Source/timers.c **** 	{
 957              		.loc 1 510 2 view .LVU250
 510:Middlewares/Third_Party/FreeRTOS/Source/timers.c **** 	{
 958              		.loc 1 510 13 is_stmt 0 view .LVU251
 959 0016 E369     		ldr	r3, [r4, #28]
 510:Middlewares/Third_Party/FreeRTOS/Source/timers.c **** 	{
 960              		.loc 1 510 4 view .LVU252
 961 0018 012B     		cmp	r3, #1
 962 001a 04D0     		beq	.L72
 963              	.L69:
 530:Middlewares/Third_Party/FreeRTOS/Source/timers.c **** 	}
 964              		.loc 1 530 27 is_stmt 1 view .LVU253
 534:Middlewares/Third_Party/FreeRTOS/Source/timers.c **** }
 965              		.loc 1 534 2 view .LVU254
 534:Middlewares/Third_Party/FreeRTOS/Source/timers.c **** }
 966              		.loc 1 534 9 is_stmt 0 view .LVU255
 967 001c 636A     		ldr	r3, [r4, #36]
 534:Middlewares/Third_Party/FreeRTOS/Source/timers.c **** }
 968              		.loc 1 534 2 view .LVU256
 969 001e 2046     		mov	r0, r4
 970 0020 9847     		blx	r3
 971              	.LVL79:
 535:Middlewares/Third_Party/FreeRTOS/Source/timers.c **** /*-----------------------------------------------------------*/
 972              		.loc 1 535 1 view .LVU257
 973 0022 02B0     		add	sp, sp, #8
 974              	.LCFI21:
 975              		.cfi_remember_state
 976              		.cfi_def_cfa_offset 16
 977              		@ sp needed
 978 0024 70BD     		pop	{r4, r5, r6, pc}
 979              	.LVL80:
 980              	.L72:
 981              	.LCFI22:
 982              		.cfi_restore_state
 515:Middlewares/Third_Party/FreeRTOS/Source/timers.c **** 		{
ARM GAS  C:\Users\gx\AppData\Local\Temp\ccYrhkVs.s 			page 43


 983              		.loc 1 515 3 is_stmt 1 view .LVU258
 515:Middlewares/Third_Party/FreeRTOS/Source/timers.c **** 		{
 984              		.loc 1 515 71 is_stmt 0 view .LVU259
 985 0026 A169     		ldr	r1, [r4, #24]
 515:Middlewares/Third_Party/FreeRTOS/Source/timers.c **** 		{
 986              		.loc 1 515 7 view .LVU260
 987 0028 2B46     		mov	r3, r5
 988 002a 3246     		mov	r2, r6
 989 002c 2944     		add	r1, r1, r5
 990 002e 2046     		mov	r0, r4
 991 0030 FFF7FEFF 		bl	prvInsertTimerInActiveList
 992              	.LVL81:
 515:Middlewares/Third_Party/FreeRTOS/Source/timers.c **** 		{
 993              		.loc 1 515 5 view .LVU261
 994 0034 0028     		cmp	r0, #0
 995 0036 F1D0     		beq	.L69
 519:Middlewares/Third_Party/FreeRTOS/Source/timers.c **** 			configASSERT( xResult );
 996              		.loc 1 519 4 is_stmt 1 view .LVU262
 519:Middlewares/Third_Party/FreeRTOS/Source/timers.c **** 			configASSERT( xResult );
 997              		.loc 1 519 14 is_stmt 0 view .LVU263
 998 0038 0021     		movs	r1, #0
 999 003a 0091     		str	r1, [sp]
 1000 003c 0B46     		mov	r3, r1
 1001 003e 2A46     		mov	r2, r5
 1002 0040 2046     		mov	r0, r4
 1003 0042 FFF7FEFF 		bl	xTimerGenericCommand
 1004              	.LVL82:
 520:Middlewares/Third_Party/FreeRTOS/Source/timers.c **** 			( void ) xResult;
 1005              		.loc 1 520 4 is_stmt 1 view .LVU264
 1006 0046 0028     		cmp	r0, #0
 1007 0048 E8D1     		bne	.L69
 520:Middlewares/Third_Party/FreeRTOS/Source/timers.c **** 			( void ) xResult;
 1008              		.loc 1 520 4 view .LVU265
 1009              	.LBB38:
 1010              	.LBI38:
 233:Middlewares/Third_Party/FreeRTOS/Source/portable/GCC/ARM_CM4F/portmacro.h **** {
 1011              		.loc 2 233 30 view .LVU266
 1012              	.LBB39:
 235:Middlewares/Third_Party/FreeRTOS/Source/portable/GCC/ARM_CM4F/portmacro.h **** 
 1013              		.loc 2 235 1 view .LVU267
 1014              		.loc 2 237 2 view .LVU268
 1015              		.syntax unified
 1016              	@ 237 "Middlewares/Third_Party/FreeRTOS/Source/portable/GCC/ARM_CM4F/portmacro.h" 1
 1017 004a 4FF05003 			mov r3, #80												
 1018 004e 83F31188 		msr basepri, r3											
 1019 0052 BFF36F8F 		isb														
 1020 0056 BFF34F8F 		dsb														
 1021              	
 1022              	@ 0 "" 2
 1023              	.LVL83:
 1024              		.thumb
 1025              		.syntax unified
 1026              	.L70:
 1027              		.loc 2 237 2 is_stmt 0 view .LVU269
 1028              	.LBE39:
 1029              	.LBE38:
 520:Middlewares/Third_Party/FreeRTOS/Source/timers.c **** 			( void ) xResult;
ARM GAS  C:\Users\gx\AppData\Local\Temp\ccYrhkVs.s 			page 44


 1030              		.loc 1 520 4 is_stmt 1 discriminator 1 view .LVU270
 520:Middlewares/Third_Party/FreeRTOS/Source/timers.c **** 			( void ) xResult;
 1031              		.loc 1 520 4 discriminator 1 view .LVU271
 520:Middlewares/Third_Party/FreeRTOS/Source/timers.c **** 			( void ) xResult;
 1032              		.loc 1 520 4 discriminator 1 view .LVU272
 1033 005a FEE7     		b	.L70
 1034              	.L74:
 1035              		.align	2
 1036              	.L73:
 1037 005c 00000000 		.word	.LANCHOR0
 1038              		.cfi_endproc
 1039              	.LFE13:
 1041              		.section	.text.prvProcessTimerOrBlockTask,"ax",%progbits
 1042              		.align	1
 1043              		.syntax unified
 1044              		.thumb
 1045              		.thumb_func
 1046              		.fpu fpv4-sp-d16
 1048              	prvProcessTimerOrBlockTask:
 1049              	.LVL84:
 1050              	.LFB15:
 575:Middlewares/Third_Party/FreeRTOS/Source/timers.c **** TickType_t xTimeNow;
 1051              		.loc 1 575 1 view -0
 1052              		.cfi_startproc
 1053              		@ args = 0, pretend = 0, frame = 8
 1054              		@ frame_needed = 0, uses_anonymous_args = 0
 575:Middlewares/Third_Party/FreeRTOS/Source/timers.c **** TickType_t xTimeNow;
 1055              		.loc 1 575 1 is_stmt 0 view .LVU274
 1056 0000 70B5     		push	{r4, r5, r6, lr}
 1057              	.LCFI23:
 1058              		.cfi_def_cfa_offset 16
 1059              		.cfi_offset 4, -16
 1060              		.cfi_offset 5, -12
 1061              		.cfi_offset 6, -8
 1062              		.cfi_offset 14, -4
 1063 0002 82B0     		sub	sp, sp, #8
 1064              	.LCFI24:
 1065              		.cfi_def_cfa_offset 24
 1066 0004 0646     		mov	r6, r0
 1067 0006 0C46     		mov	r4, r1
 576:Middlewares/Third_Party/FreeRTOS/Source/timers.c **** BaseType_t xTimerListsWereSwitched;
 1068              		.loc 1 576 1 is_stmt 1 view .LVU275
 577:Middlewares/Third_Party/FreeRTOS/Source/timers.c **** 
 1069              		.loc 1 577 1 view .LVU276
 579:Middlewares/Third_Party/FreeRTOS/Source/timers.c **** 	{
 1070              		.loc 1 579 2 view .LVU277
 1071 0008 FFF7FEFF 		bl	vTaskSuspendAll
 1072              	.LVL85:
 586:Middlewares/Third_Party/FreeRTOS/Source/timers.c **** 		if( xTimerListsWereSwitched == pdFALSE )
 1073              		.loc 1 586 3 view .LVU278
 586:Middlewares/Third_Party/FreeRTOS/Source/timers.c **** 		if( xTimerListsWereSwitched == pdFALSE )
 1074              		.loc 1 586 14 is_stmt 0 view .LVU279
 1075 000c 01A8     		add	r0, sp, #4
 1076 000e FFF7FEFF 		bl	prvSampleTimeNow
 1077              	.LVL86:
 587:Middlewares/Third_Party/FreeRTOS/Source/timers.c **** 		{
 1078              		.loc 1 587 3 is_stmt 1 view .LVU280
ARM GAS  C:\Users\gx\AppData\Local\Temp\ccYrhkVs.s 			page 45


 587:Middlewares/Third_Party/FreeRTOS/Source/timers.c **** 		{
 1079              		.loc 1 587 31 is_stmt 0 view .LVU281
 1080 0012 019B     		ldr	r3, [sp, #4]
 587:Middlewares/Third_Party/FreeRTOS/Source/timers.c **** 		{
 1081              		.loc 1 587 5 view .LVU282
 1082 0014 1BBB     		cbnz	r3, .L76
 1083 0016 0546     		mov	r5, r0
 590:Middlewares/Third_Party/FreeRTOS/Source/timers.c **** 			{
 1084              		.loc 1 590 4 is_stmt 1 view .LVU283
 590:Middlewares/Third_Party/FreeRTOS/Source/timers.c **** 			{
 1085              		.loc 1 590 6 is_stmt 0 view .LVU284
 1086 0018 0CB9     		cbnz	r4, .L77
 590:Middlewares/Third_Party/FreeRTOS/Source/timers.c **** 			{
 1087              		.loc 1 590 37 discriminator 1 view .LVU285
 1088 001a B042     		cmp	r0, r6
 1089 001c 18D2     		bcs	.L81
 1090              	.L77:
 603:Middlewares/Third_Party/FreeRTOS/Source/timers.c **** 				{
 1091              		.loc 1 603 5 is_stmt 1 view .LVU286
 603:Middlewares/Third_Party/FreeRTOS/Source/timers.c **** 				{
 1092              		.loc 1 603 7 is_stmt 0 view .LVU287
 1093 001e 2CB1     		cbz	r4, .L79
 607:Middlewares/Third_Party/FreeRTOS/Source/timers.c **** 				}
 1094              		.loc 1 607 6 is_stmt 1 view .LVU288
 607:Middlewares/Third_Party/FreeRTOS/Source/timers.c **** 				}
 1095              		.loc 1 607 22 is_stmt 0 view .LVU289
 1096 0020 114B     		ldr	r3, .L82
 1097 0022 1B68     		ldr	r3, [r3]
 1098 0024 1C68     		ldr	r4, [r3]
 1099              	.LVL87:
 607:Middlewares/Third_Party/FreeRTOS/Source/timers.c **** 				}
 1100              		.loc 1 607 22 view .LVU290
 1101 0026 B4FA84F4 		clz	r4, r4
 1102 002a 6409     		lsrs	r4, r4, #5
 1103              	.LVL88:
 1104              	.L79:
 610:Middlewares/Third_Party/FreeRTOS/Source/timers.c **** 
 1105              		.loc 1 610 5 is_stmt 1 view .LVU291
 1106 002c 2246     		mov	r2, r4
 1107 002e 711B     		subs	r1, r6, r5
 1108 0030 0E4B     		ldr	r3, .L82+4
 1109 0032 1868     		ldr	r0, [r3]
 1110              	.LVL89:
 610:Middlewares/Third_Party/FreeRTOS/Source/timers.c **** 
 1111              		.loc 1 610 5 is_stmt 0 view .LVU292
 1112 0034 FFF7FEFF 		bl	vQueueWaitForMessageRestricted
 1113              	.LVL90:
 612:Middlewares/Third_Party/FreeRTOS/Source/timers.c **** 				{
 1114              		.loc 1 612 5 is_stmt 1 view .LVU293
 612:Middlewares/Third_Party/FreeRTOS/Source/timers.c **** 				{
 1115              		.loc 1 612 9 is_stmt 0 view .LVU294
 1116 0038 FFF7FEFF 		bl	xTaskResumeAll
 1117              	.LVL91:
 612:Middlewares/Third_Party/FreeRTOS/Source/timers.c **** 				{
 1118              		.loc 1 612 7 view .LVU295
 1119 003c 88B9     		cbnz	r0, .L75
 618:Middlewares/Third_Party/FreeRTOS/Source/timers.c **** 				}
ARM GAS  C:\Users\gx\AppData\Local\Temp\ccYrhkVs.s 			page 46


 1120              		.loc 1 618 6 is_stmt 1 view .LVU296
 1121 003e 0C4B     		ldr	r3, .L82+8
 1122 0040 4FF08052 		mov	r2, #268435456
 1123 0044 1A60     		str	r2, [r3]
 618:Middlewares/Third_Party/FreeRTOS/Source/timers.c **** 				}
 1124              		.loc 1 618 6 view .LVU297
 1125              		.syntax unified
 1126              	@ 618 "Middlewares/Third_Party/FreeRTOS/Source/timers.c" 1
 1127 0046 BFF34F8F 		dsb
 1128              	@ 0 "" 2
 618:Middlewares/Third_Party/FreeRTOS/Source/timers.c **** 				}
 1129              		.loc 1 618 6 view .LVU298
 1130              	@ 618 "Middlewares/Third_Party/FreeRTOS/Source/timers.c" 1
 1131 004a BFF36F8F 		isb
 1132              	@ 0 "" 2
 618:Middlewares/Third_Party/FreeRTOS/Source/timers.c **** 				}
 1133              		.loc 1 618 28 view .LVU299
 1134              		.thumb
 1135              		.syntax unified
 1136 004e 08E0     		b	.L75
 1137              	.LVL92:
 1138              	.L81:
 592:Middlewares/Third_Party/FreeRTOS/Source/timers.c **** 				prvProcessExpiredTimer( xNextExpireTime, xTimeNow );
 1139              		.loc 1 592 5 view .LVU300
 592:Middlewares/Third_Party/FreeRTOS/Source/timers.c **** 				prvProcessExpiredTimer( xNextExpireTime, xTimeNow );
 1140              		.loc 1 592 14 is_stmt 0 view .LVU301
 1141 0050 FFF7FEFF 		bl	xTaskResumeAll
 1142              	.LVL93:
 593:Middlewares/Third_Party/FreeRTOS/Source/timers.c **** 			}
 1143              		.loc 1 593 5 is_stmt 1 view .LVU302
 1144 0054 2946     		mov	r1, r5
 1145 0056 3046     		mov	r0, r6
 1146 0058 FFF7FEFF 		bl	prvProcessExpiredTimer
 1147              	.LVL94:
 1148 005c 01E0     		b	.L75
 1149              	.LVL95:
 1150              	.L76:
 628:Middlewares/Third_Party/FreeRTOS/Source/timers.c **** 		}
 1151              		.loc 1 628 4 view .LVU303
 628:Middlewares/Third_Party/FreeRTOS/Source/timers.c **** 		}
 1152              		.loc 1 628 13 is_stmt 0 view .LVU304
 1153 005e FFF7FEFF 		bl	xTaskResumeAll
 1154              	.LVL96:
 1155              	.L75:
 631:Middlewares/Third_Party/FreeRTOS/Source/timers.c **** /*-----------------------------------------------------------*/
 1156              		.loc 1 631 1 view .LVU305
 1157 0062 02B0     		add	sp, sp, #8
 1158              	.LCFI25:
 1159              		.cfi_def_cfa_offset 16
 1160              		@ sp needed
 1161 0064 70BD     		pop	{r4, r5, r6, pc}
 1162              	.LVL97:
 1163              	.L83:
 631:Middlewares/Third_Party/FreeRTOS/Source/timers.c **** /*-----------------------------------------------------------*/
 1164              		.loc 1 631 1 view .LVU306
 1165 0066 00BF     		.align	2
 1166              	.L82:
ARM GAS  C:\Users\gx\AppData\Local\Temp\ccYrhkVs.s 			page 47


 1167 0068 00000000 		.word	.LANCHOR1
 1168 006c 00000000 		.word	.LANCHOR2
 1169 0070 04ED00E0 		.word	-536810236
 1170              		.cfi_endproc
 1171              	.LFE15:
 1173              		.section	.text.prvProcessReceivedCommands,"ax",%progbits
 1174              		.align	1
 1175              		.syntax unified
 1176              		.thumb
 1177              		.thumb_func
 1178              		.fpu fpv4-sp-d16
 1180              	prvProcessReceivedCommands:
 1181              	.LFB19:
 725:Middlewares/Third_Party/FreeRTOS/Source/timers.c **** DaemonTaskMessage_t xMessage;
 1182              		.loc 1 725 1 is_stmt 1 view -0
 1183              		.cfi_startproc
 1184              		@ args = 0, pretend = 0, frame = 16
 1185              		@ frame_needed = 0, uses_anonymous_args = 0
 1186 0000 10B5     		push	{r4, lr}
 1187              	.LCFI26:
 1188              		.cfi_def_cfa_offset 8
 1189              		.cfi_offset 4, -8
 1190              		.cfi_offset 14, -4
 1191 0002 86B0     		sub	sp, sp, #24
 1192              	.LCFI27:
 1193              		.cfi_def_cfa_offset 32
 726:Middlewares/Third_Party/FreeRTOS/Source/timers.c **** Timer_t *pxTimer;
 1194              		.loc 1 726 1 view .LVU308
 727:Middlewares/Third_Party/FreeRTOS/Source/timers.c **** BaseType_t xTimerListsWereSwitched, xResult;
 1195              		.loc 1 727 1 view .LVU309
 728:Middlewares/Third_Party/FreeRTOS/Source/timers.c **** TickType_t xTimeNow;
 1196              		.loc 1 728 1 view .LVU310
 729:Middlewares/Third_Party/FreeRTOS/Source/timers.c **** 
 1197              		.loc 1 729 1 view .LVU311
 731:Middlewares/Third_Party/FreeRTOS/Source/timers.c **** 	{
 1198              		.loc 1 731 2 view .LVU312
 1199              	.L86:
 731:Middlewares/Third_Party/FreeRTOS/Source/timers.c **** 	{
 1200              		.loc 1 731 7 view .LVU313
 731:Middlewares/Third_Party/FreeRTOS/Source/timers.c **** 	{
 1201              		.loc 1 731 9 is_stmt 0 view .LVU314
 1202 0004 0023     		movs	r3, #0
 1203 0006 1A46     		mov	r2, r3
 1204 0008 03A9     		add	r1, sp, #12
 1205 000a 3448     		ldr	r0, .L101
 1206 000c 0068     		ldr	r0, [r0]
 1207 000e FFF7FEFF 		bl	xQueueGenericReceive
 1208              	.LVL98:
 731:Middlewares/Third_Party/FreeRTOS/Source/timers.c **** 	{
 1209              		.loc 1 731 7 view .LVU315
 1210 0012 0028     		cmp	r0, #0
 1211 0014 60D0     		beq	.L99
 757:Middlewares/Third_Party/FreeRTOS/Source/timers.c **** 		{
 1212              		.loc 1 757 3 is_stmt 1 view .LVU316
 757:Middlewares/Third_Party/FreeRTOS/Source/timers.c **** 		{
 1213              		.loc 1 757 15 is_stmt 0 view .LVU317
 1214 0016 039B     		ldr	r3, [sp, #12]
ARM GAS  C:\Users\gx\AppData\Local\Temp\ccYrhkVs.s 			page 48


 757:Middlewares/Third_Party/FreeRTOS/Source/timers.c **** 		{
 1215              		.loc 1 757 5 view .LVU318
 1216 0018 002B     		cmp	r3, #0
 1217 001a F3DB     		blt	.L86
 761:Middlewares/Third_Party/FreeRTOS/Source/timers.c **** 
 1218              		.loc 1 761 4 is_stmt 1 view .LVU319
 761:Middlewares/Third_Party/FreeRTOS/Source/timers.c **** 
 1219              		.loc 1 761 12 is_stmt 0 view .LVU320
 1220 001c 059C     		ldr	r4, [sp, #20]
 1221              	.LVL99:
 763:Middlewares/Third_Party/FreeRTOS/Source/timers.c **** 			{
 1222              		.loc 1 763 4 is_stmt 1 view .LVU321
 763:Middlewares/Third_Party/FreeRTOS/Source/timers.c **** 			{
 1223              		.loc 1 763 8 is_stmt 0 view .LVU322
 1224 001e 6369     		ldr	r3, [r4, #20]
 763:Middlewares/Third_Party/FreeRTOS/Source/timers.c **** 			{
 1225              		.loc 1 763 6 view .LVU323
 1226 0020 13B1     		cbz	r3, .L87
 766:Middlewares/Third_Party/FreeRTOS/Source/timers.c **** 			}
 1227              		.loc 1 766 5 is_stmt 1 view .LVU324
 766:Middlewares/Third_Party/FreeRTOS/Source/timers.c **** 			}
 1228              		.loc 1 766 14 is_stmt 0 view .LVU325
 1229 0022 201D     		adds	r0, r4, #4
 1230 0024 FFF7FEFF 		bl	uxListRemove
 1231              	.LVL100:
 1232              	.L87:
 770:Middlewares/Third_Party/FreeRTOS/Source/timers.c **** 			}
 1233              		.loc 1 770 29 is_stmt 1 view .LVU326
 773:Middlewares/Third_Party/FreeRTOS/Source/timers.c **** 
 1234              		.loc 1 773 106 view .LVU327
 781:Middlewares/Third_Party/FreeRTOS/Source/timers.c **** 
 1235              		.loc 1 781 4 view .LVU328
 781:Middlewares/Third_Party/FreeRTOS/Source/timers.c **** 
 1236              		.loc 1 781 15 is_stmt 0 view .LVU329
 1237 0028 02A8     		add	r0, sp, #8
 1238 002a FFF7FEFF 		bl	prvSampleTimeNow
 1239              	.LVL101:
 783:Middlewares/Third_Party/FreeRTOS/Source/timers.c **** 			{
 1240              		.loc 1 783 4 is_stmt 1 view .LVU330
 783:Middlewares/Third_Party/FreeRTOS/Source/timers.c **** 			{
 1241              		.loc 1 783 20 is_stmt 0 view .LVU331
 1242 002e 039B     		ldr	r3, [sp, #12]
 1243 0030 092B     		cmp	r3, #9
 1244 0032 E7D8     		bhi	.L86
 1245 0034 01A2     		adr	r2, .L90
 1246 0036 52F823F0 		ldr	pc, [r2, r3, lsl #2]
 1247 003a 00BF     		.p2align 2
 1248              	.L90:
 1249 003c 65000000 		.word	.L91+1
 1250 0040 65000000 		.word	.L91+1
 1251 0044 65000000 		.word	.L91+1
 1252 0048 05000000 		.word	.L86+1
 1253 004c AB000000 		.word	.L89+1
 1254 0050 D1000000 		.word	.L92+1
 1255 0054 65000000 		.word	.L91+1
 1256 0058 65000000 		.word	.L91+1
 1257 005c 05000000 		.word	.L86+1
ARM GAS  C:\Users\gx\AppData\Local\Temp\ccYrhkVs.s 			page 49


 1258 0060 AB000000 		.word	.L89+1
 1259              		.p2align 1
 1260              	.L91:
 791:Middlewares/Third_Party/FreeRTOS/Source/timers.c **** 					{
 1261              		.loc 1 791 6 is_stmt 1 view .LVU332
 791:Middlewares/Third_Party/FreeRTOS/Source/timers.c **** 					{
 1262              		.loc 1 791 75 is_stmt 0 view .LVU333
 1263 0064 049B     		ldr	r3, [sp, #16]
 791:Middlewares/Third_Party/FreeRTOS/Source/timers.c **** 					{
 1264              		.loc 1 791 99 view .LVU334
 1265 0066 A169     		ldr	r1, [r4, #24]
 791:Middlewares/Third_Party/FreeRTOS/Source/timers.c **** 					{
 1266              		.loc 1 791 10 view .LVU335
 1267 0068 0246     		mov	r2, r0
 1268 006a 1944     		add	r1, r1, r3
 1269 006c 2046     		mov	r0, r4
 1270              	.LVL102:
 791:Middlewares/Third_Party/FreeRTOS/Source/timers.c **** 					{
 1271              		.loc 1 791 10 view .LVU336
 1272 006e FFF7FEFF 		bl	prvInsertTimerInActiveList
 1273              	.LVL103:
 791:Middlewares/Third_Party/FreeRTOS/Source/timers.c **** 					{
 1274              		.loc 1 791 8 view .LVU337
 1275 0072 0028     		cmp	r0, #0
 1276 0074 C6D0     		beq	.L86
 795:Middlewares/Third_Party/FreeRTOS/Source/timers.c **** 						traceTIMER_EXPIRED( pxTimer );
 1277              		.loc 1 795 7 is_stmt 1 view .LVU338
 795:Middlewares/Third_Party/FreeRTOS/Source/timers.c **** 						traceTIMER_EXPIRED( pxTimer );
 1278              		.loc 1 795 14 is_stmt 0 view .LVU339
 1279 0076 636A     		ldr	r3, [r4, #36]
 795:Middlewares/Third_Party/FreeRTOS/Source/timers.c **** 						traceTIMER_EXPIRED( pxTimer );
 1280              		.loc 1 795 7 view .LVU340
 1281 0078 2046     		mov	r0, r4
 1282 007a 9847     		blx	r3
 1283              	.LVL104:
 796:Middlewares/Third_Party/FreeRTOS/Source/timers.c **** 
 1284              		.loc 1 796 36 is_stmt 1 view .LVU341
 798:Middlewares/Third_Party/FreeRTOS/Source/timers.c **** 						{
 1285              		.loc 1 798 7 view .LVU342
 798:Middlewares/Third_Party/FreeRTOS/Source/timers.c **** 						{
 1286              		.loc 1 798 18 is_stmt 0 view .LVU343
 1287 007c E369     		ldr	r3, [r4, #28]
 798:Middlewares/Third_Party/FreeRTOS/Source/timers.c **** 						{
 1288              		.loc 1 798 9 view .LVU344
 1289 007e 012B     		cmp	r3, #1
 1290 0080 C0D1     		bne	.L86
 800:Middlewares/Third_Party/FreeRTOS/Source/timers.c **** 							configASSERT( xResult );
 1291              		.loc 1 800 8 is_stmt 1 view .LVU345
 800:Middlewares/Third_Party/FreeRTOS/Source/timers.c **** 							configASSERT( xResult );
 1292              		.loc 1 800 129 is_stmt 0 view .LVU346
 1293 0082 A269     		ldr	r2, [r4, #24]
 800:Middlewares/Third_Party/FreeRTOS/Source/timers.c **** 							configASSERT( xResult );
 1294              		.loc 1 800 18 view .LVU347
 1295 0084 0021     		movs	r1, #0
 1296 0086 0091     		str	r1, [sp]
 1297 0088 0B46     		mov	r3, r1
 1298 008a 0498     		ldr	r0, [sp, #16]
ARM GAS  C:\Users\gx\AppData\Local\Temp\ccYrhkVs.s 			page 50


 1299 008c 0244     		add	r2, r2, r0
 1300 008e 2046     		mov	r0, r4
 1301 0090 FFF7FEFF 		bl	xTimerGenericCommand
 1302              	.LVL105:
 801:Middlewares/Third_Party/FreeRTOS/Source/timers.c **** 							( void ) xResult;
 1303              		.loc 1 801 8 is_stmt 1 view .LVU348
 1304 0094 0028     		cmp	r0, #0
 1305 0096 B5D1     		bne	.L86
 801:Middlewares/Third_Party/FreeRTOS/Source/timers.c **** 							( void ) xResult;
 1306              		.loc 1 801 8 view .LVU349
 1307              	.LBB40:
 1308              	.LBI40:
 233:Middlewares/Third_Party/FreeRTOS/Source/portable/GCC/ARM_CM4F/portmacro.h **** {
 1309              		.loc 2 233 30 view .LVU350
 1310              	.LBB41:
 235:Middlewares/Third_Party/FreeRTOS/Source/portable/GCC/ARM_CM4F/portmacro.h **** 
 1311              		.loc 2 235 1 view .LVU351
 1312              		.loc 2 237 2 view .LVU352
 1313              		.syntax unified
 1314              	@ 237 "Middlewares/Third_Party/FreeRTOS/Source/portable/GCC/ARM_CM4F/portmacro.h" 1
 1315 0098 4FF05003 			mov r3, #80												
 1316 009c 83F31188 		msr basepri, r3											
 1317 00a0 BFF36F8F 		isb														
 1318 00a4 BFF34F8F 		dsb														
 1319              	
 1320              	@ 0 "" 2
 1321              	.LVL106:
 1322              		.thumb
 1323              		.syntax unified
 1324              	.L94:
 1325              		.loc 2 237 2 is_stmt 0 view .LVU353
 1326              	.LBE41:
 1327              	.LBE40:
 801:Middlewares/Third_Party/FreeRTOS/Source/timers.c **** 							( void ) xResult;
 1328              		.loc 1 801 8 is_stmt 1 discriminator 1 view .LVU354
 801:Middlewares/Third_Party/FreeRTOS/Source/timers.c **** 							( void ) xResult;
 1329              		.loc 1 801 8 discriminator 1 view .LVU355
 801:Middlewares/Third_Party/FreeRTOS/Source/timers.c **** 							( void ) xResult;
 1330              		.loc 1 801 8 discriminator 1 view .LVU356
 1331 00a8 FEE7     		b	.L94
 1332              	.LVL107:
 1333              	.L89:
 823:Middlewares/Third_Party/FreeRTOS/Source/timers.c **** 					configASSERT( ( pxTimer->xTimerPeriodInTicks > 0 ) );
 1334              		.loc 1 823 6 view .LVU357
 823:Middlewares/Third_Party/FreeRTOS/Source/timers.c **** 					configASSERT( ( pxTimer->xTimerPeriodInTicks > 0 ) );
 1335              		.loc 1 823 64 is_stmt 0 view .LVU358
 1336 00aa 0499     		ldr	r1, [sp, #16]
 823:Middlewares/Third_Party/FreeRTOS/Source/timers.c **** 					configASSERT( ( pxTimer->xTimerPeriodInTicks > 0 ) );
 1337              		.loc 1 823 35 view .LVU359
 1338 00ac A161     		str	r1, [r4, #24]
 824:Middlewares/Third_Party/FreeRTOS/Source/timers.c **** 
 1339              		.loc 1 824 6 is_stmt 1 view .LVU360
 1340 00ae 31B1     		cbz	r1, .L100
 824:Middlewares/Third_Party/FreeRTOS/Source/timers.c **** 
 1341              		.loc 1 824 58 discriminator 2 view .LVU361
 832:Middlewares/Third_Party/FreeRTOS/Source/timers.c **** 					break;
 1342              		.loc 1 832 6 discriminator 2 view .LVU362
ARM GAS  C:\Users\gx\AppData\Local\Temp\ccYrhkVs.s 			page 51


 832:Middlewares/Third_Party/FreeRTOS/Source/timers.c **** 					break;
 1343              		.loc 1 832 15 is_stmt 0 discriminator 2 view .LVU363
 1344 00b0 0346     		mov	r3, r0
 1345 00b2 0246     		mov	r2, r0
 1346 00b4 0144     		add	r1, r1, r0
 1347 00b6 2046     		mov	r0, r4
 1348              	.LVL108:
 832:Middlewares/Third_Party/FreeRTOS/Source/timers.c **** 					break;
 1349              		.loc 1 832 15 discriminator 2 view .LVU364
 1350 00b8 FFF7FEFF 		bl	prvInsertTimerInActiveList
 1351              	.LVL109:
 833:Middlewares/Third_Party/FreeRTOS/Source/timers.c **** 
 1352              		.loc 1 833 6 is_stmt 1 discriminator 2 view .LVU365
 1353 00bc A2E7     		b	.L86
 1354              	.LVL110:
 1355              	.L100:
 824:Middlewares/Third_Party/FreeRTOS/Source/timers.c **** 
 1356              		.loc 1 824 6 view .LVU366
 1357              	.LBB42:
 1358              	.LBI42:
 233:Middlewares/Third_Party/FreeRTOS/Source/portable/GCC/ARM_CM4F/portmacro.h **** {
 1359              		.loc 2 233 30 view .LVU367
 1360              	.LBB43:
 235:Middlewares/Third_Party/FreeRTOS/Source/portable/GCC/ARM_CM4F/portmacro.h **** 
 1361              		.loc 2 235 1 view .LVU368
 1362              		.loc 2 237 2 view .LVU369
 1363              		.syntax unified
 1364              	@ 237 "Middlewares/Third_Party/FreeRTOS/Source/portable/GCC/ARM_CM4F/portmacro.h" 1
 1365 00be 4FF05003 			mov r3, #80												
 1366 00c2 83F31188 		msr basepri, r3											
 1367 00c6 BFF36F8F 		isb														
 1368 00ca BFF34F8F 		dsb														
 1369              	
 1370              	@ 0 "" 2
 1371              	.LVL111:
 1372              		.thumb
 1373              		.syntax unified
 1374              	.L96:
 1375              		.loc 2 237 2 is_stmt 0 view .LVU370
 1376              	.LBE43:
 1377              	.LBE42:
 824:Middlewares/Third_Party/FreeRTOS/Source/timers.c **** 
 1378              		.loc 1 824 6 is_stmt 1 discriminator 4 view .LVU371
 824:Middlewares/Third_Party/FreeRTOS/Source/timers.c **** 
 1379              		.loc 1 824 6 discriminator 4 view .LVU372
 824:Middlewares/Third_Party/FreeRTOS/Source/timers.c **** 
 1380              		.loc 1 824 6 discriminator 4 view .LVU373
 1381 00ce FEE7     		b	.L96
 1382              	.L92:
 843:Middlewares/Third_Party/FreeRTOS/Source/timers.c **** 					}
 1383              		.loc 1 843 7 view .LVU374
 1384 00d0 2046     		mov	r0, r4
 1385              	.LVL112:
 843:Middlewares/Third_Party/FreeRTOS/Source/timers.c **** 					}
 1386              		.loc 1 843 7 is_stmt 0 view .LVU375
 1387 00d2 FFF7FEFF 		bl	vPortFree
 1388              	.LVL113:
ARM GAS  C:\Users\gx\AppData\Local\Temp\ccYrhkVs.s 			page 52


 860:Middlewares/Third_Party/FreeRTOS/Source/timers.c **** 
 1389              		.loc 1 860 6 is_stmt 1 view .LVU376
 1390 00d6 95E7     		b	.L86
 1391              	.LVL114:
 1392              	.L99:
 868:Middlewares/Third_Party/FreeRTOS/Source/timers.c **** /*-----------------------------------------------------------*/
 1393              		.loc 1 868 1 is_stmt 0 view .LVU377
 1394 00d8 06B0     		add	sp, sp, #24
 1395              	.LCFI28:
 1396              		.cfi_def_cfa_offset 8
 1397              		@ sp needed
 1398 00da 10BD     		pop	{r4, pc}
 1399              	.L102:
 1400              		.align	2
 1401              	.L101:
 1402 00dc 00000000 		.word	.LANCHOR2
 1403              		.cfi_endproc
 1404              	.LFE19:
 1406              		.section	.text.prvTimerTask,"ax",%progbits
 1407              		.align	1
 1408              		.syntax unified
 1409              		.thumb
 1410              		.thumb_func
 1411              		.fpu fpv4-sp-d16
 1413              	prvTimerTask:
 1414              	.LFB14:
 539:Middlewares/Third_Party/FreeRTOS/Source/timers.c **** TickType_t xNextExpireTime;
 1415              		.loc 1 539 1 is_stmt 1 view -0
 1416              		.cfi_startproc
 1417              		@ args = 0, pretend = 0, frame = 8
 1418              		@ frame_needed = 0, uses_anonymous_args = 0
 1419              	.LVL115:
 539:Middlewares/Third_Party/FreeRTOS/Source/timers.c **** TickType_t xNextExpireTime;
 1420              		.loc 1 539 1 is_stmt 0 view .LVU379
 1421 0000 00B5     		push	{lr}
 1422              	.LCFI29:
 1423              		.cfi_def_cfa_offset 4
 1424              		.cfi_offset 14, -4
 1425 0002 83B0     		sub	sp, sp, #12
 1426              	.LCFI30:
 1427              		.cfi_def_cfa_offset 16
 1428              	.LVL116:
 1429              	.L104:
 540:Middlewares/Third_Party/FreeRTOS/Source/timers.c **** BaseType_t xListWasEmpty;
 1430              		.loc 1 540 1 is_stmt 1 discriminator 1 view .LVU380
 541:Middlewares/Third_Party/FreeRTOS/Source/timers.c **** 
 1431              		.loc 1 541 1 discriminator 1 view .LVU381
 544:Middlewares/Third_Party/FreeRTOS/Source/timers.c **** 
 1432              		.loc 1 544 2 discriminator 1 view .LVU382
 558:Middlewares/Third_Party/FreeRTOS/Source/timers.c **** 	{
 1433              		.loc 1 558 2 discriminator 1 view .LVU383
 562:Middlewares/Third_Party/FreeRTOS/Source/timers.c **** 
 1434              		.loc 1 562 3 discriminator 1 view .LVU384
 562:Middlewares/Third_Party/FreeRTOS/Source/timers.c **** 
 1435              		.loc 1 562 21 is_stmt 0 discriminator 1 view .LVU385
 1436 0004 01A8     		add	r0, sp, #4
 1437 0006 FFF7FEFF 		bl	prvGetNextExpireTime
ARM GAS  C:\Users\gx\AppData\Local\Temp\ccYrhkVs.s 			page 53


 1438              	.LVL117:
 566:Middlewares/Third_Party/FreeRTOS/Source/timers.c **** 
 1439              		.loc 1 566 3 is_stmt 1 discriminator 1 view .LVU386
 1440 000a 0199     		ldr	r1, [sp, #4]
 1441 000c FFF7FEFF 		bl	prvProcessTimerOrBlockTask
 1442              	.LVL118:
 569:Middlewares/Third_Party/FreeRTOS/Source/timers.c **** 	}
 1443              		.loc 1 569 3 discriminator 1 view .LVU387
 1444 0010 FFF7FEFF 		bl	prvProcessReceivedCommands
 1445              	.LVL119:
 558:Middlewares/Third_Party/FreeRTOS/Source/timers.c **** 	{
 1446              		.loc 1 558 8 discriminator 1 view .LVU388
 1447 0014 F6E7     		b	.L104
 1448              		.cfi_endproc
 1449              	.LFE14:
 1451              		.section	.text.xTimerGetTimerDaemonTaskHandle,"ax",%progbits
 1452              		.align	1
 1453              		.global	xTimerGetTimerDaemonTaskHandle
 1454              		.syntax unified
 1455              		.thumb
 1456              		.thumb_func
 1457              		.fpu fpv4-sp-d16
 1459              	xTimerGetTimerDaemonTaskHandle:
 1460              	.LFB9:
 461:Middlewares/Third_Party/FreeRTOS/Source/timers.c **** 	/* If xTimerGetTimerDaemonTaskHandle() is called before the scheduler has been
 1461              		.loc 1 461 1 view -0
 1462              		.cfi_startproc
 1463              		@ args = 0, pretend = 0, frame = 0
 1464              		@ frame_needed = 0, uses_anonymous_args = 0
 1465              		@ link register save eliminated.
 464:Middlewares/Third_Party/FreeRTOS/Source/timers.c **** 	return xTimerTaskHandle;
 1466              		.loc 1 464 2 view .LVU390
 1467 0000 064B     		ldr	r3, .L110
 1468 0002 1868     		ldr	r0, [r3]
 1469 0004 00B1     		cbz	r0, .L109
 466:Middlewares/Third_Party/FreeRTOS/Source/timers.c **** /*-----------------------------------------------------------*/
 1470              		.loc 1 466 1 is_stmt 0 view .LVU391
 1471 0006 7047     		bx	lr
 1472              	.L109:
 464:Middlewares/Third_Party/FreeRTOS/Source/timers.c **** 	return xTimerTaskHandle;
 1473              		.loc 1 464 2 is_stmt 1 view .LVU392
 1474              	.LBB44:
 1475              	.LBI44:
 233:Middlewares/Third_Party/FreeRTOS/Source/portable/GCC/ARM_CM4F/portmacro.h **** {
 1476              		.loc 2 233 30 view .LVU393
 1477              	.LBB45:
 235:Middlewares/Third_Party/FreeRTOS/Source/portable/GCC/ARM_CM4F/portmacro.h **** 
 1478              		.loc 2 235 1 view .LVU394
 1479              		.loc 2 237 2 view .LVU395
 1480              		.syntax unified
 1481              	@ 237 "Middlewares/Third_Party/FreeRTOS/Source/portable/GCC/ARM_CM4F/portmacro.h" 1
 1482 0008 4FF05003 			mov r3, #80												
 1483 000c 83F31188 		msr basepri, r3											
 1484 0010 BFF36F8F 		isb														
 1485 0014 BFF34F8F 		dsb														
 1486              	
 1487              	@ 0 "" 2
ARM GAS  C:\Users\gx\AppData\Local\Temp\ccYrhkVs.s 			page 54


 1488              	.LVL120:
 1489              		.thumb
 1490              		.syntax unified
 1491              	.L108:
 1492              		.loc 2 237 2 is_stmt 0 view .LVU396
 1493              	.LBE45:
 1494              	.LBE44:
 464:Middlewares/Third_Party/FreeRTOS/Source/timers.c **** 	return xTimerTaskHandle;
 1495              		.loc 1 464 2 is_stmt 1 discriminator 1 view .LVU397
 464:Middlewares/Third_Party/FreeRTOS/Source/timers.c **** 	return xTimerTaskHandle;
 1496              		.loc 1 464 2 discriminator 1 view .LVU398
 464:Middlewares/Third_Party/FreeRTOS/Source/timers.c **** 	return xTimerTaskHandle;
 1497              		.loc 1 464 2 discriminator 1 view .LVU399
 1498 0018 FEE7     		b	.L108
 1499              	.L111:
 1500 001a 00BF     		.align	2
 1501              	.L110:
 1502 001c 00000000 		.word	.LANCHOR5
 1503              		.cfi_endproc
 1504              	.LFE9:
 1506              		.section	.text.xTimerGetPeriod,"ax",%progbits
 1507              		.align	1
 1508              		.global	xTimerGetPeriod
 1509              		.syntax unified
 1510              		.thumb
 1511              		.thumb_func
 1512              		.fpu fpv4-sp-d16
 1514              	xTimerGetPeriod:
 1515              	.LVL121:
 1516              	.LFB10:
 470:Middlewares/Third_Party/FreeRTOS/Source/timers.c **** Timer_t *pxTimer = ( Timer_t * ) xTimer;
 1517              		.loc 1 470 1 view -0
 1518              		.cfi_startproc
 1519              		@ args = 0, pretend = 0, frame = 0
 1520              		@ frame_needed = 0, uses_anonymous_args = 0
 1521              		@ link register save eliminated.
 471:Middlewares/Third_Party/FreeRTOS/Source/timers.c **** 
 1522              		.loc 1 471 1 view .LVU401
 473:Middlewares/Third_Party/FreeRTOS/Source/timers.c **** 	return pxTimer->xTimerPeriodInTicks;
 1523              		.loc 1 473 2 view .LVU402
 1524 0000 08B1     		cbz	r0, .L115
 473:Middlewares/Third_Party/FreeRTOS/Source/timers.c **** 	return pxTimer->xTimerPeriodInTicks;
 1525              		.loc 1 473 24 discriminator 2 view .LVU403
 474:Middlewares/Third_Party/FreeRTOS/Source/timers.c **** }
 1526              		.loc 1 474 2 discriminator 2 view .LVU404
 475:Middlewares/Third_Party/FreeRTOS/Source/timers.c **** /*-----------------------------------------------------------*/
 1527              		.loc 1 475 1 is_stmt 0 discriminator 2 view .LVU405
 1528 0002 8069     		ldr	r0, [r0, #24]
 1529              	.LVL122:
 475:Middlewares/Third_Party/FreeRTOS/Source/timers.c **** /*-----------------------------------------------------------*/
 1530              		.loc 1 475 1 discriminator 2 view .LVU406
 1531 0004 7047     		bx	lr
 1532              	.LVL123:
 1533              	.L115:
 473:Middlewares/Third_Party/FreeRTOS/Source/timers.c **** 	return pxTimer->xTimerPeriodInTicks;
 1534              		.loc 1 473 2 is_stmt 1 view .LVU407
 1535              	.LBB46:
ARM GAS  C:\Users\gx\AppData\Local\Temp\ccYrhkVs.s 			page 55


 1536              	.LBI46:
 233:Middlewares/Third_Party/FreeRTOS/Source/portable/GCC/ARM_CM4F/portmacro.h **** {
 1537              		.loc 2 233 30 view .LVU408
 1538              	.LBB47:
 235:Middlewares/Third_Party/FreeRTOS/Source/portable/GCC/ARM_CM4F/portmacro.h **** 
 1539              		.loc 2 235 1 view .LVU409
 1540              		.loc 2 237 2 view .LVU410
 1541              		.syntax unified
 1542              	@ 237 "Middlewares/Third_Party/FreeRTOS/Source/portable/GCC/ARM_CM4F/portmacro.h" 1
 1543 0006 4FF05003 			mov r3, #80												
 1544 000a 83F31188 		msr basepri, r3											
 1545 000e BFF36F8F 		isb														
 1546 0012 BFF34F8F 		dsb														
 1547              	
 1548              	@ 0 "" 2
 1549              	.LVL124:
 1550              		.thumb
 1551              		.syntax unified
 1552              	.L114:
 1553              		.loc 2 237 2 is_stmt 0 view .LVU411
 1554              	.LBE47:
 1555              	.LBE46:
 473:Middlewares/Third_Party/FreeRTOS/Source/timers.c **** 	return pxTimer->xTimerPeriodInTicks;
 1556              		.loc 1 473 2 is_stmt 1 discriminator 1 view .LVU412
 473:Middlewares/Third_Party/FreeRTOS/Source/timers.c **** 	return pxTimer->xTimerPeriodInTicks;
 1557              		.loc 1 473 2 discriminator 1 view .LVU413
 473:Middlewares/Third_Party/FreeRTOS/Source/timers.c **** 	return pxTimer->xTimerPeriodInTicks;
 1558              		.loc 1 473 2 discriminator 1 view .LVU414
 1559 0016 FEE7     		b	.L114
 1560              		.cfi_endproc
 1561              	.LFE10:
 1563              		.section	.text.xTimerGetExpiryTime,"ax",%progbits
 1564              		.align	1
 1565              		.global	xTimerGetExpiryTime
 1566              		.syntax unified
 1567              		.thumb
 1568              		.thumb_func
 1569              		.fpu fpv4-sp-d16
 1571              	xTimerGetExpiryTime:
 1572              	.LVL125:
 1573              	.LFB11:
 479:Middlewares/Third_Party/FreeRTOS/Source/timers.c **** Timer_t * pxTimer = ( Timer_t * ) xTimer;
 1574              		.loc 1 479 1 view -0
 1575              		.cfi_startproc
 1576              		@ args = 0, pretend = 0, frame = 0
 1577              		@ frame_needed = 0, uses_anonymous_args = 0
 1578              		@ link register save eliminated.
 480:Middlewares/Third_Party/FreeRTOS/Source/timers.c **** TickType_t xReturn;
 1579              		.loc 1 480 1 view .LVU416
 481:Middlewares/Third_Party/FreeRTOS/Source/timers.c **** 
 1580              		.loc 1 481 1 view .LVU417
 483:Middlewares/Third_Party/FreeRTOS/Source/timers.c **** 	xReturn = listGET_LIST_ITEM_VALUE( &( pxTimer->xTimerListItem ) );
 1581              		.loc 1 483 2 view .LVU418
 1582 0000 08B1     		cbz	r0, .L119
 483:Middlewares/Third_Party/FreeRTOS/Source/timers.c **** 	xReturn = listGET_LIST_ITEM_VALUE( &( pxTimer->xTimerListItem ) );
 1583              		.loc 1 483 24 discriminator 2 view .LVU419
 484:Middlewares/Third_Party/FreeRTOS/Source/timers.c **** 	return xReturn;
ARM GAS  C:\Users\gx\AppData\Local\Temp\ccYrhkVs.s 			page 56


 1584              		.loc 1 484 2 discriminator 2 view .LVU420
 1585              	.LVL126:
 485:Middlewares/Third_Party/FreeRTOS/Source/timers.c **** }
 1586              		.loc 1 485 2 discriminator 2 view .LVU421
 486:Middlewares/Third_Party/FreeRTOS/Source/timers.c **** /*-----------------------------------------------------------*/
 1587              		.loc 1 486 1 is_stmt 0 discriminator 2 view .LVU422
 1588 0002 4068     		ldr	r0, [r0, #4]
 1589              	.LVL127:
 486:Middlewares/Third_Party/FreeRTOS/Source/timers.c **** /*-----------------------------------------------------------*/
 1590              		.loc 1 486 1 discriminator 2 view .LVU423
 1591 0004 7047     		bx	lr
 1592              	.LVL128:
 1593              	.L119:
 483:Middlewares/Third_Party/FreeRTOS/Source/timers.c **** 	xReturn = listGET_LIST_ITEM_VALUE( &( pxTimer->xTimerListItem ) );
 1594              		.loc 1 483 2 is_stmt 1 view .LVU424
 1595              	.LBB48:
 1596              	.LBI48:
 233:Middlewares/Third_Party/FreeRTOS/Source/portable/GCC/ARM_CM4F/portmacro.h **** {
 1597              		.loc 2 233 30 view .LVU425
 1598              	.LBB49:
 235:Middlewares/Third_Party/FreeRTOS/Source/portable/GCC/ARM_CM4F/portmacro.h **** 
 1599              		.loc 2 235 1 view .LVU426
 1600              		.loc 2 237 2 view .LVU427
 1601              		.syntax unified
 1602              	@ 237 "Middlewares/Third_Party/FreeRTOS/Source/portable/GCC/ARM_CM4F/portmacro.h" 1
 1603 0006 4FF05003 			mov r3, #80												
 1604 000a 83F31188 		msr basepri, r3											
 1605 000e BFF36F8F 		isb														
 1606 0012 BFF34F8F 		dsb														
 1607              	
 1608              	@ 0 "" 2
 1609              	.LVL129:
 1610              		.thumb
 1611              		.syntax unified
 1612              	.L118:
 1613              		.loc 2 237 2 is_stmt 0 view .LVU428
 1614              	.LBE49:
 1615              	.LBE48:
 483:Middlewares/Third_Party/FreeRTOS/Source/timers.c **** 	xReturn = listGET_LIST_ITEM_VALUE( &( pxTimer->xTimerListItem ) );
 1616              		.loc 1 483 2 is_stmt 1 discriminator 1 view .LVU429
 483:Middlewares/Third_Party/FreeRTOS/Source/timers.c **** 	xReturn = listGET_LIST_ITEM_VALUE( &( pxTimer->xTimerListItem ) );
 1617              		.loc 1 483 2 discriminator 1 view .LVU430
 483:Middlewares/Third_Party/FreeRTOS/Source/timers.c **** 	xReturn = listGET_LIST_ITEM_VALUE( &( pxTimer->xTimerListItem ) );
 1618              		.loc 1 483 2 discriminator 1 view .LVU431
 1619 0016 FEE7     		b	.L118
 1620              		.cfi_endproc
 1621              	.LFE11:
 1623              		.section	.text.pcTimerGetName,"ax",%progbits
 1624              		.align	1
 1625              		.global	pcTimerGetName
 1626              		.syntax unified
 1627              		.thumb
 1628              		.thumb_func
 1629              		.fpu fpv4-sp-d16
 1631              	pcTimerGetName:
 1632              	.LVL130:
 1633              	.LFB12:
ARM GAS  C:\Users\gx\AppData\Local\Temp\ccYrhkVs.s 			page 57


 490:Middlewares/Third_Party/FreeRTOS/Source/timers.c **** Timer_t *pxTimer = ( Timer_t * ) xTimer;
 1634              		.loc 1 490 1 view -0
 1635              		.cfi_startproc
 1636              		@ args = 0, pretend = 0, frame = 0
 1637              		@ frame_needed = 0, uses_anonymous_args = 0
 1638              		@ link register save eliminated.
 491:Middlewares/Third_Party/FreeRTOS/Source/timers.c **** 
 1639              		.loc 1 491 1 view .LVU433
 493:Middlewares/Third_Party/FreeRTOS/Source/timers.c **** 	return pxTimer->pcTimerName;
 1640              		.loc 1 493 2 view .LVU434
 1641 0000 08B1     		cbz	r0, .L123
 493:Middlewares/Third_Party/FreeRTOS/Source/timers.c **** 	return pxTimer->pcTimerName;
 1642              		.loc 1 493 24 discriminator 2 view .LVU435
 494:Middlewares/Third_Party/FreeRTOS/Source/timers.c **** }
 1643              		.loc 1 494 2 discriminator 2 view .LVU436
 495:Middlewares/Third_Party/FreeRTOS/Source/timers.c **** /*-----------------------------------------------------------*/
 1644              		.loc 1 495 1 is_stmt 0 discriminator 2 view .LVU437
 1645 0002 0068     		ldr	r0, [r0]
 1646              	.LVL131:
 495:Middlewares/Third_Party/FreeRTOS/Source/timers.c **** /*-----------------------------------------------------------*/
 1647              		.loc 1 495 1 discriminator 2 view .LVU438
 1648 0004 7047     		bx	lr
 1649              	.LVL132:
 1650              	.L123:
 493:Middlewares/Third_Party/FreeRTOS/Source/timers.c **** 	return pxTimer->pcTimerName;
 1651              		.loc 1 493 2 is_stmt 1 view .LVU439
 1652              	.LBB50:
 1653              	.LBI50:
 233:Middlewares/Third_Party/FreeRTOS/Source/portable/GCC/ARM_CM4F/portmacro.h **** {
 1654              		.loc 2 233 30 view .LVU440
 1655              	.LBB51:
 235:Middlewares/Third_Party/FreeRTOS/Source/portable/GCC/ARM_CM4F/portmacro.h **** 
 1656              		.loc 2 235 1 view .LVU441
 1657              		.loc 2 237 2 view .LVU442
 1658              		.syntax unified
 1659              	@ 237 "Middlewares/Third_Party/FreeRTOS/Source/portable/GCC/ARM_CM4F/portmacro.h" 1
 1660 0006 4FF05003 			mov r3, #80												
 1661 000a 83F31188 		msr basepri, r3											
 1662 000e BFF36F8F 		isb														
 1663 0012 BFF34F8F 		dsb														
 1664              	
 1665              	@ 0 "" 2
 1666              	.LVL133:
 1667              		.thumb
 1668              		.syntax unified
 1669              	.L122:
 1670              		.loc 2 237 2 is_stmt 0 view .LVU443
 1671              	.LBE51:
 1672              	.LBE50:
 493:Middlewares/Third_Party/FreeRTOS/Source/timers.c **** 	return pxTimer->pcTimerName;
 1673              		.loc 1 493 2 is_stmt 1 discriminator 1 view .LVU444
 493:Middlewares/Third_Party/FreeRTOS/Source/timers.c **** 	return pxTimer->pcTimerName;
 1674              		.loc 1 493 2 discriminator 1 view .LVU445
 493:Middlewares/Third_Party/FreeRTOS/Source/timers.c **** 	return pxTimer->pcTimerName;
 1675              		.loc 1 493 2 discriminator 1 view .LVU446
 1676 0016 FEE7     		b	.L122
 1677              		.cfi_endproc
ARM GAS  C:\Users\gx\AppData\Local\Temp\ccYrhkVs.s 			page 58


 1678              	.LFE12:
 1680              		.section	.text.xTimerIsTimerActive,"ax",%progbits
 1681              		.align	1
 1682              		.global	xTimerIsTimerActive
 1683              		.syntax unified
 1684              		.thumb
 1685              		.thumb_func
 1686              		.fpu fpv4-sp-d16
 1688              	xTimerIsTimerActive:
 1689              	.LVL134:
 1690              	.LFB22:
 979:Middlewares/Third_Party/FreeRTOS/Source/timers.c **** /*-----------------------------------------------------------*/
 980:Middlewares/Third_Party/FreeRTOS/Source/timers.c **** 
 981:Middlewares/Third_Party/FreeRTOS/Source/timers.c **** BaseType_t xTimerIsTimerActive( TimerHandle_t xTimer )
 982:Middlewares/Third_Party/FreeRTOS/Source/timers.c **** {
 1691              		.loc 1 982 1 view -0
 1692              		.cfi_startproc
 1693              		@ args = 0, pretend = 0, frame = 0
 1694              		@ frame_needed = 0, uses_anonymous_args = 0
 983:Middlewares/Third_Party/FreeRTOS/Source/timers.c **** BaseType_t xTimerIsInActiveList;
 1695              		.loc 1 983 1 view .LVU448
 984:Middlewares/Third_Party/FreeRTOS/Source/timers.c **** Timer_t *pxTimer = ( Timer_t * ) xTimer;
 1696              		.loc 1 984 1 view .LVU449
 985:Middlewares/Third_Party/FreeRTOS/Source/timers.c **** 
 986:Middlewares/Third_Party/FreeRTOS/Source/timers.c **** 	configASSERT( xTimer );
 1697              		.loc 1 986 2 view .LVU450
 1698 0000 58B1     		cbz	r0, .L129
 982:Middlewares/Third_Party/FreeRTOS/Source/timers.c **** BaseType_t xTimerIsInActiveList;
 1699              		.loc 1 982 1 is_stmt 0 discriminator 2 view .LVU451
 1700 0002 10B5     		push	{r4, lr}
 1701              	.LCFI31:
 1702              		.cfi_def_cfa_offset 8
 1703              		.cfi_offset 4, -8
 1704              		.cfi_offset 14, -4
 1705 0004 0446     		mov	r4, r0
 1706              		.loc 1 986 24 is_stmt 1 discriminator 2 view .LVU452
 987:Middlewares/Third_Party/FreeRTOS/Source/timers.c **** 
 988:Middlewares/Third_Party/FreeRTOS/Source/timers.c **** 	/* Is the timer in the list of active timers? */
 989:Middlewares/Third_Party/FreeRTOS/Source/timers.c **** 	taskENTER_CRITICAL();
 1707              		.loc 1 989 2 discriminator 2 view .LVU453
 1708 0006 FFF7FEFF 		bl	vPortEnterCritical
 1709              	.LVL135:
 990:Middlewares/Third_Party/FreeRTOS/Source/timers.c **** 	{
 991:Middlewares/Third_Party/FreeRTOS/Source/timers.c **** 		/* Checking to see if it is in the NULL list in effect checks to see if
 992:Middlewares/Third_Party/FreeRTOS/Source/timers.c **** 		it is referenced from either the current or the overflow timer lists in
 993:Middlewares/Third_Party/FreeRTOS/Source/timers.c **** 		one go, but the logic has to be reversed, hence the '!'. */
 994:Middlewares/Third_Party/FreeRTOS/Source/timers.c **** 		xTimerIsInActiveList = ( BaseType_t ) !( listIS_CONTAINED_WITHIN( NULL, &( pxTimer->xTimerListIte
 1710              		.loc 1 994 3 discriminator 2 view .LVU454
 1711              		.loc 1 994 44 is_stmt 0 discriminator 2 view .LVU455
 1712 000a 6469     		ldr	r4, [r4, #20]
 1713              	.LVL136:
 1714              		.loc 1 994 26 discriminator 2 view .LVU456
 1715 000c 003C     		subs	r4, r4, #0
 1716 000e 18BF     		it	ne
 1717 0010 0124     		movne	r4, #1
 1718              	.LVL137:
 995:Middlewares/Third_Party/FreeRTOS/Source/timers.c **** 	}
ARM GAS  C:\Users\gx\AppData\Local\Temp\ccYrhkVs.s 			page 59


 996:Middlewares/Third_Party/FreeRTOS/Source/timers.c **** 	taskEXIT_CRITICAL();
 1719              		.loc 1 996 2 is_stmt 1 discriminator 2 view .LVU457
 1720 0012 FFF7FEFF 		bl	vPortExitCritical
 1721              	.LVL138:
 997:Middlewares/Third_Party/FreeRTOS/Source/timers.c **** 
 998:Middlewares/Third_Party/FreeRTOS/Source/timers.c **** 	return xTimerIsInActiveList;
 1722              		.loc 1 998 2 discriminator 2 view .LVU458
 999:Middlewares/Third_Party/FreeRTOS/Source/timers.c **** } /*lint !e818 Can't be pointer to const due to the typedef. */
 1723              		.loc 1 999 1 is_stmt 0 discriminator 2 view .LVU459
 1724 0016 2046     		mov	r0, r4
 1725 0018 10BD     		pop	{r4, pc}
 1726              	.LVL139:
 1727              	.L129:
 1728              	.LCFI32:
 1729              		.cfi_def_cfa_offset 0
 1730              		.cfi_restore 4
 1731              		.cfi_restore 14
 986:Middlewares/Third_Party/FreeRTOS/Source/timers.c **** 
 1732              		.loc 1 986 2 is_stmt 1 view .LVU460
 1733              	.LBB52:
 1734              	.LBI52:
 233:Middlewares/Third_Party/FreeRTOS/Source/portable/GCC/ARM_CM4F/portmacro.h **** {
 1735              		.loc 2 233 30 view .LVU461
 1736              	.LBB53:
 235:Middlewares/Third_Party/FreeRTOS/Source/portable/GCC/ARM_CM4F/portmacro.h **** 
 1737              		.loc 2 235 1 view .LVU462
 1738              		.loc 2 237 2 view .LVU463
 1739              		.syntax unified
 1740              	@ 237 "Middlewares/Third_Party/FreeRTOS/Source/portable/GCC/ARM_CM4F/portmacro.h" 1
 1741 001a 4FF05003 			mov r3, #80												
 1742 001e 83F31188 		msr basepri, r3											
 1743 0022 BFF36F8F 		isb														
 1744 0026 BFF34F8F 		dsb														
 1745              	
 1746              	@ 0 "" 2
 1747              	.LVL140:
 1748              		.thumb
 1749              		.syntax unified
 1750              	.L126:
 1751              		.loc 2 237 2 is_stmt 0 view .LVU464
 1752              	.LBE53:
 1753              	.LBE52:
 986:Middlewares/Third_Party/FreeRTOS/Source/timers.c **** 
 1754              		.loc 1 986 2 is_stmt 1 discriminator 1 view .LVU465
 986:Middlewares/Third_Party/FreeRTOS/Source/timers.c **** 
 1755              		.loc 1 986 2 discriminator 1 view .LVU466
 986:Middlewares/Third_Party/FreeRTOS/Source/timers.c **** 
 1756              		.loc 1 986 2 discriminator 1 view .LVU467
 1757 002a FEE7     		b	.L126
 1758              		.cfi_endproc
 1759              	.LFE22:
 1761              		.section	.text.pvTimerGetTimerID,"ax",%progbits
 1762              		.align	1
 1763              		.global	pvTimerGetTimerID
 1764              		.syntax unified
 1765              		.thumb
 1766              		.thumb_func
ARM GAS  C:\Users\gx\AppData\Local\Temp\ccYrhkVs.s 			page 60


 1767              		.fpu fpv4-sp-d16
 1769              	pvTimerGetTimerID:
 1770              	.LVL141:
 1771              	.LFB23:
1000:Middlewares/Third_Party/FreeRTOS/Source/timers.c **** /*-----------------------------------------------------------*/
1001:Middlewares/Third_Party/FreeRTOS/Source/timers.c **** 
1002:Middlewares/Third_Party/FreeRTOS/Source/timers.c **** void *pvTimerGetTimerID( const TimerHandle_t xTimer )
1003:Middlewares/Third_Party/FreeRTOS/Source/timers.c **** {
 1772              		.loc 1 1003 1 view -0
 1773              		.cfi_startproc
 1774              		@ args = 0, pretend = 0, frame = 0
 1775              		@ frame_needed = 0, uses_anonymous_args = 0
1004:Middlewares/Third_Party/FreeRTOS/Source/timers.c **** Timer_t * const pxTimer = ( Timer_t * ) xTimer;
 1776              		.loc 1 1004 1 view .LVU469
1005:Middlewares/Third_Party/FreeRTOS/Source/timers.c **** void *pvReturn;
 1777              		.loc 1 1005 1 view .LVU470
1006:Middlewares/Third_Party/FreeRTOS/Source/timers.c **** 
1007:Middlewares/Third_Party/FreeRTOS/Source/timers.c **** 	configASSERT( xTimer );
 1778              		.loc 1 1007 2 view .LVU471
 1779 0000 40B1     		cbz	r0, .L135
1003:Middlewares/Third_Party/FreeRTOS/Source/timers.c **** Timer_t * const pxTimer = ( Timer_t * ) xTimer;
 1780              		.loc 1 1003 1 is_stmt 0 discriminator 2 view .LVU472
 1781 0002 10B5     		push	{r4, lr}
 1782              	.LCFI33:
 1783              		.cfi_def_cfa_offset 8
 1784              		.cfi_offset 4, -8
 1785              		.cfi_offset 14, -4
 1786 0004 0446     		mov	r4, r0
 1787              		.loc 1 1007 24 is_stmt 1 discriminator 2 view .LVU473
1008:Middlewares/Third_Party/FreeRTOS/Source/timers.c **** 
1009:Middlewares/Third_Party/FreeRTOS/Source/timers.c **** 	taskENTER_CRITICAL();
 1788              		.loc 1 1009 2 discriminator 2 view .LVU474
 1789 0006 FFF7FEFF 		bl	vPortEnterCritical
 1790              	.LVL142:
1010:Middlewares/Third_Party/FreeRTOS/Source/timers.c **** 	{
1011:Middlewares/Third_Party/FreeRTOS/Source/timers.c **** 		pvReturn = pxTimer->pvTimerID;
 1791              		.loc 1 1011 3 discriminator 2 view .LVU475
 1792              		.loc 1 1011 12 is_stmt 0 discriminator 2 view .LVU476
 1793 000a 246A     		ldr	r4, [r4, #32]
 1794              	.LVL143:
1012:Middlewares/Third_Party/FreeRTOS/Source/timers.c **** 	}
1013:Middlewares/Third_Party/FreeRTOS/Source/timers.c **** 	taskEXIT_CRITICAL();
 1795              		.loc 1 1013 2 is_stmt 1 discriminator 2 view .LVU477
 1796 000c FFF7FEFF 		bl	vPortExitCritical
 1797              	.LVL144:
1014:Middlewares/Third_Party/FreeRTOS/Source/timers.c **** 
1015:Middlewares/Third_Party/FreeRTOS/Source/timers.c **** 	return pvReturn;
 1798              		.loc 1 1015 2 discriminator 2 view .LVU478
1016:Middlewares/Third_Party/FreeRTOS/Source/timers.c **** }
 1799              		.loc 1 1016 1 is_stmt 0 discriminator 2 view .LVU479
 1800 0010 2046     		mov	r0, r4
 1801 0012 10BD     		pop	{r4, pc}
 1802              	.LVL145:
 1803              	.L135:
 1804              	.LCFI34:
 1805              		.cfi_def_cfa_offset 0
 1806              		.cfi_restore 4
ARM GAS  C:\Users\gx\AppData\Local\Temp\ccYrhkVs.s 			page 61


 1807              		.cfi_restore 14
1007:Middlewares/Third_Party/FreeRTOS/Source/timers.c **** 
 1808              		.loc 1 1007 2 is_stmt 1 view .LVU480
 1809              	.LBB54:
 1810              	.LBI54:
 233:Middlewares/Third_Party/FreeRTOS/Source/portable/GCC/ARM_CM4F/portmacro.h **** {
 1811              		.loc 2 233 30 view .LVU481
 1812              	.LBB55:
 235:Middlewares/Third_Party/FreeRTOS/Source/portable/GCC/ARM_CM4F/portmacro.h **** 
 1813              		.loc 2 235 1 view .LVU482
 1814              		.loc 2 237 2 view .LVU483
 1815              		.syntax unified
 1816              	@ 237 "Middlewares/Third_Party/FreeRTOS/Source/portable/GCC/ARM_CM4F/portmacro.h" 1
 1817 0014 4FF05003 			mov r3, #80												
 1818 0018 83F31188 		msr basepri, r3											
 1819 001c BFF36F8F 		isb														
 1820 0020 BFF34F8F 		dsb														
 1821              	
 1822              	@ 0 "" 2
 1823              	.LVL146:
 1824              		.thumb
 1825              		.syntax unified
 1826              	.L132:
 1827              		.loc 2 237 2 is_stmt 0 view .LVU484
 1828              	.LBE55:
 1829              	.LBE54:
1007:Middlewares/Third_Party/FreeRTOS/Source/timers.c **** 
 1830              		.loc 1 1007 2 is_stmt 1 discriminator 1 view .LVU485
1007:Middlewares/Third_Party/FreeRTOS/Source/timers.c **** 
 1831              		.loc 1 1007 2 discriminator 1 view .LVU486
1007:Middlewares/Third_Party/FreeRTOS/Source/timers.c **** 
 1832              		.loc 1 1007 2 discriminator 1 view .LVU487
 1833 0024 FEE7     		b	.L132
 1834              		.cfi_endproc
 1835              	.LFE23:
 1837              		.section	.text.vTimerSetTimerID,"ax",%progbits
 1838              		.align	1
 1839              		.global	vTimerSetTimerID
 1840              		.syntax unified
 1841              		.thumb
 1842              		.thumb_func
 1843              		.fpu fpv4-sp-d16
 1845              	vTimerSetTimerID:
 1846              	.LVL147:
 1847              	.LFB24:
1017:Middlewares/Third_Party/FreeRTOS/Source/timers.c **** /*-----------------------------------------------------------*/
1018:Middlewares/Third_Party/FreeRTOS/Source/timers.c **** 
1019:Middlewares/Third_Party/FreeRTOS/Source/timers.c **** void vTimerSetTimerID( TimerHandle_t xTimer, void *pvNewID )
1020:Middlewares/Third_Party/FreeRTOS/Source/timers.c **** {
 1848              		.loc 1 1020 1 view -0
 1849              		.cfi_startproc
 1850              		@ args = 0, pretend = 0, frame = 0
 1851              		@ frame_needed = 0, uses_anonymous_args = 0
 1852              		.loc 1 1020 1 is_stmt 0 view .LVU489
 1853 0000 38B5     		push	{r3, r4, r5, lr}
 1854              	.LCFI35:
 1855              		.cfi_def_cfa_offset 16
ARM GAS  C:\Users\gx\AppData\Local\Temp\ccYrhkVs.s 			page 62


 1856              		.cfi_offset 3, -16
 1857              		.cfi_offset 4, -12
 1858              		.cfi_offset 5, -8
 1859              		.cfi_offset 14, -4
1021:Middlewares/Third_Party/FreeRTOS/Source/timers.c **** Timer_t * const pxTimer = ( Timer_t * ) xTimer;
 1860              		.loc 1 1021 1 is_stmt 1 view .LVU490
 1861              	.LVL148:
1022:Middlewares/Third_Party/FreeRTOS/Source/timers.c **** 
1023:Middlewares/Third_Party/FreeRTOS/Source/timers.c **** 	configASSERT( xTimer );
 1862              		.loc 1 1023 2 view .LVU491
 1863 0002 38B1     		cbz	r0, .L140
 1864 0004 0C46     		mov	r4, r1
 1865 0006 0546     		mov	r5, r0
 1866              		.loc 1 1023 24 discriminator 2 view .LVU492
1024:Middlewares/Third_Party/FreeRTOS/Source/timers.c **** 
1025:Middlewares/Third_Party/FreeRTOS/Source/timers.c **** 	taskENTER_CRITICAL();
 1867              		.loc 1 1025 2 discriminator 2 view .LVU493
 1868 0008 FFF7FEFF 		bl	vPortEnterCritical
 1869              	.LVL149:
1026:Middlewares/Third_Party/FreeRTOS/Source/timers.c **** 	{
1027:Middlewares/Third_Party/FreeRTOS/Source/timers.c **** 		pxTimer->pvTimerID = pvNewID;
 1870              		.loc 1 1027 3 discriminator 2 view .LVU494
 1871              		.loc 1 1027 22 is_stmt 0 discriminator 2 view .LVU495
 1872 000c 2C62     		str	r4, [r5, #32]
1028:Middlewares/Third_Party/FreeRTOS/Source/timers.c **** 	}
1029:Middlewares/Third_Party/FreeRTOS/Source/timers.c **** 	taskEXIT_CRITICAL();
 1873              		.loc 1 1029 2 is_stmt 1 discriminator 2 view .LVU496
 1874 000e FFF7FEFF 		bl	vPortExitCritical
 1875              	.LVL150:
1030:Middlewares/Third_Party/FreeRTOS/Source/timers.c **** }
 1876              		.loc 1 1030 1 is_stmt 0 discriminator 2 view .LVU497
 1877 0012 38BD     		pop	{r3, r4, r5, pc}
 1878              	.LVL151:
 1879              	.L140:
1023:Middlewares/Third_Party/FreeRTOS/Source/timers.c **** 
 1880              		.loc 1 1023 2 is_stmt 1 view .LVU498
 1881              	.LBB56:
 1882              	.LBI56:
 233:Middlewares/Third_Party/FreeRTOS/Source/portable/GCC/ARM_CM4F/portmacro.h **** {
 1883              		.loc 2 233 30 view .LVU499
 1884              	.LBB57:
 235:Middlewares/Third_Party/FreeRTOS/Source/portable/GCC/ARM_CM4F/portmacro.h **** 
 1885              		.loc 2 235 1 view .LVU500
 1886              		.loc 2 237 2 view .LVU501
 1887              		.syntax unified
 1888              	@ 237 "Middlewares/Third_Party/FreeRTOS/Source/portable/GCC/ARM_CM4F/portmacro.h" 1
 1889 0014 4FF05003 			mov r3, #80												
 1890 0018 83F31188 		msr basepri, r3											
 1891 001c BFF36F8F 		isb														
 1892 0020 BFF34F8F 		dsb														
 1893              	
 1894              	@ 0 "" 2
 1895              	.LVL152:
 1896              		.thumb
 1897              		.syntax unified
 1898              	.L138:
 1899              		.loc 2 237 2 is_stmt 0 view .LVU502
ARM GAS  C:\Users\gx\AppData\Local\Temp\ccYrhkVs.s 			page 63


 1900              	.LBE57:
 1901              	.LBE56:
1023:Middlewares/Third_Party/FreeRTOS/Source/timers.c **** 
 1902              		.loc 1 1023 2 is_stmt 1 discriminator 1 view .LVU503
1023:Middlewares/Third_Party/FreeRTOS/Source/timers.c **** 
 1903              		.loc 1 1023 2 discriminator 1 view .LVU504
1023:Middlewares/Third_Party/FreeRTOS/Source/timers.c **** 
 1904              		.loc 1 1023 2 discriminator 1 view .LVU505
 1905 0024 FEE7     		b	.L138
 1906              		.cfi_endproc
 1907              	.LFE24:
 1909              		.section	.bss.pxCurrentTimerList,"aw",%nobits
 1910              		.align	2
 1911              		.set	.LANCHOR0,. + 0
 1914              	pxCurrentTimerList:
 1915 0000 00000000 		.space	4
 1916              		.section	.bss.pxOverflowTimerList,"aw",%nobits
 1917              		.align	2
 1918              		.set	.LANCHOR1,. + 0
 1921              	pxOverflowTimerList:
 1922 0000 00000000 		.space	4
 1923              		.section	.bss.xActiveTimerList1,"aw",%nobits
 1924              		.align	2
 1925              		.set	.LANCHOR3,. + 0
 1928              	xActiveTimerList1:
 1929 0000 00000000 		.space	20
 1929      00000000 
 1929      00000000 
 1929      00000000 
 1929      00000000 
 1930              		.section	.bss.xActiveTimerList2,"aw",%nobits
 1931              		.align	2
 1932              		.set	.LANCHOR4,. + 0
 1935              	xActiveTimerList2:
 1936 0000 00000000 		.space	20
 1936      00000000 
 1936      00000000 
 1936      00000000 
 1936      00000000 
 1937              		.section	.bss.xLastTime.6802,"aw",%nobits
 1938              		.align	2
 1939              		.set	.LANCHOR6,. + 0
 1942              	xLastTime.6802:
 1943 0000 00000000 		.space	4
 1944              		.section	.bss.xTimerQueue,"aw",%nobits
 1945              		.align	2
 1946              		.set	.LANCHOR2,. + 0
 1949              	xTimerQueue:
 1950 0000 00000000 		.space	4
 1951              		.section	.bss.xTimerTaskHandle,"aw",%nobits
 1952              		.align	2
 1953              		.set	.LANCHOR5,. + 0
 1956              	xTimerTaskHandle:
 1957 0000 00000000 		.space	4
 1958              		.text
 1959              	.Letext0:
 1960              		.file 3 "c:\\program files (x86)\\gnu arm embedded toolchain\\9 2020-q2-update\\lib\\gcc\\arm-none
ARM GAS  C:\Users\gx\AppData\Local\Temp\ccYrhkVs.s 			page 64


 1961              		.file 4 "c:\\program files (x86)\\gnu arm embedded toolchain\\9 2020-q2-update\\arm-none-eabi\\inc
 1962              		.file 5 "c:\\program files (x86)\\gnu arm embedded toolchain\\9 2020-q2-update\\arm-none-eabi\\inc
 1963              		.file 6 "c:\\program files (x86)\\gnu arm embedded toolchain\\9 2020-q2-update\\arm-none-eabi\\inc
 1964              		.file 7 "c:\\program files (x86)\\gnu arm embedded toolchain\\9 2020-q2-update\\arm-none-eabi\\inc
 1965              		.file 8 "c:\\program files (x86)\\gnu arm embedded toolchain\\9 2020-q2-update\\arm-none-eabi\\inc
 1966              		.file 9 "c:\\program files (x86)\\gnu arm embedded toolchain\\9 2020-q2-update\\arm-none-eabi\\inc
 1967              		.file 10 "Inc/FreeRTOSConfig.h"
 1968              		.file 11 "Middlewares/Third_Party/FreeRTOS/Source/include/list.h"
 1969              		.file 12 "Middlewares/Third_Party/FreeRTOS/Source/include/task.h"
 1970              		.file 13 "Middlewares/Third_Party/FreeRTOS/Source/include/queue.h"
 1971              		.file 14 "Middlewares/Third_Party/FreeRTOS/Source/include/timers.h"
 1972              		.file 15 "Middlewares/Third_Party/FreeRTOS/Source/include/portable.h"
ARM GAS  C:\Users\gx\AppData\Local\Temp\ccYrhkVs.s 			page 65

