ARM GAS  C:\Users\gx\AppData\Local\Temp\ccouHbLM.s 			page 1


   1              		.cpu cortex-m4
   2              		.eabi_attribute 27, 1
   3              		.eabi_attribute 28, 1
   4              		.eabi_attribute 20, 1
   5              		.eabi_attribute 21, 1
   6              		.eabi_attribute 23, 3
   7              		.eabi_attribute 24, 1
   8              		.eabi_attribute 25, 1
   9              		.eabi_attribute 26, 1
  10              		.eabi_attribute 30, 1
  11              		.eabi_attribute 34, 1
  12              		.eabi_attribute 18, 4
  13              		.file	"touch.c"
  14              		.text
  15              	.Ltext0:
  16              		.cfi_sections	.debug_frame
  17              		.section	.text.XPT2046_DelayUS,"ax",%progbits
  18              		.align	1
  19              		.arch armv7e-m
  20              		.syntax unified
  21              		.thumb
  22              		.thumb_func
  23              		.fpu fpv4-sp-d16
  25              	XPT2046_DelayUS:
  26              	.LVL0:
  27              	.LFB126:
  28              		.file 1 "user/touch.c"
   1:user/touch.c  **** #include "touch.h"
   2:user/touch.c  **** 
   3:user/touch.c  **** XPT2046_Calibration cal_value = {0};
   4:user/touch.c  **** 
   5:user/touch.c  **** 
   6:user/touch.c  **** /**
   7:user/touch.c  ****   * 函数功能: us 级别延时，不是很精确
   8:user/touch.c  ****   * 输入参数: cnt：延时时间
   9:user/touch.c  ****   * 返 回 值: 无
  10:user/touch.c  ****   * 说    明：无
  11:user/touch.c  ****   */
  12:user/touch.c  **** static void XPT2046_DelayUS(__IO uint32_t ulCount)
  13:user/touch.c  **** {
  29              		.loc 1 13 1 view -0
  30              		.cfi_startproc
  31              		@ args = 0, pretend = 0, frame = 8
  32              		@ frame_needed = 0, uses_anonymous_args = 0
  33              		@ link register save eliminated.
  34              		.loc 1 13 1 is_stmt 0 view .LVU1
  35 0000 82B0     		sub	sp, sp, #8
  36              	.LCFI0:
  37              		.cfi_def_cfa_offset 8
  38 0002 0190     		str	r0, [sp, #4]
  14:user/touch.c  ****     uint32_t i;
  39              		.loc 1 14 5 is_stmt 1 view .LVU2
  15:user/touch.c  ****     for (i = 0; i < ulCount; i++)
  40              		.loc 1 15 5 view .LVU3
  41              	.LVL1:
  42              		.loc 1 15 12 is_stmt 0 view .LVU4
  43 0004 0021     		movs	r1, #0
ARM GAS  C:\Users\gx\AppData\Local\Temp\ccouHbLM.s 			page 2


  44              		.loc 1 15 5 view .LVU5
  45 0006 00E0     		b	.L2
  46              	.LVL2:
  47              	.L7:
  48              		.loc 1 15 30 is_stmt 1 discriminator 2 view .LVU6
  49              		.loc 1 15 31 is_stmt 0 discriminator 2 view .LVU7
  50 0008 0131     		adds	r1, r1, #1
  51              	.LVL3:
  52              	.L2:
  53              		.loc 1 15 17 is_stmt 1 discriminator 1 view .LVU8
  54              		.loc 1 15 19 is_stmt 0 discriminator 1 view .LVU9
  55 000a 019B     		ldr	r3, [sp, #4]
  56              		.loc 1 15 5 discriminator 1 view .LVU10
  57 000c 8B42     		cmp	r3, r1
  58 000e 06D9     		bls	.L6
  59              	.LBB2:
  16:user/touch.c  ****     {
  17:user/touch.c  ****         uint8_t uc = 12; //设置值为12，大约延1微秒
  60              		.loc 1 17 17 view .LVU11
  61 0010 0C23     		movs	r3, #12
  62              	.L3:
  63              	.LVL4:
  18:user/touch.c  ****         while (uc--)
  19:user/touch.c  ****             ; //延1微秒
  64              		.loc 1 19 13 is_stmt 1 discriminator 1 view .LVU12
  18:user/touch.c  ****         while (uc--)
  65              		.loc 1 18 15 discriminator 1 view .LVU13
  66 0012 1A46     		mov	r2, r3
  18:user/touch.c  ****         while (uc--)
  67              		.loc 1 18 18 is_stmt 0 discriminator 1 view .LVU14
  68 0014 013B     		subs	r3, r3, #1
  69              	.LVL5:
  18:user/touch.c  ****         while (uc--)
  70              		.loc 1 18 18 discriminator 1 view .LVU15
  71 0016 DBB2     		uxtb	r3, r3
  72              	.LVL6:
  18:user/touch.c  ****         while (uc--)
  73              		.loc 1 18 15 discriminator 1 view .LVU16
  74 0018 002A     		cmp	r2, #0
  75 001a FAD1     		bne	.L3
  76 001c F4E7     		b	.L7
  77              	.LVL7:
  78              	.L6:
  18:user/touch.c  ****         while (uc--)
  79              		.loc 1 18 15 discriminator 1 view .LVU17
  80              	.LBE2:
  20:user/touch.c  ****     }
  21:user/touch.c  **** }
  81              		.loc 1 21 1 view .LVU18
  82 001e 02B0     		add	sp, sp, #8
  83              	.LCFI1:
  84              		.cfi_def_cfa_offset 0
  85              		@ sp needed
  86 0020 7047     		bx	lr
  87              		.cfi_endproc
  88              	.LFE126:
  90              		.section	.text.XPT2046_WriteCMD,"ax",%progbits
ARM GAS  C:\Users\gx\AppData\Local\Temp\ccouHbLM.s 			page 3


  91              		.align	1
  92              		.syntax unified
  93              		.thumb
  94              		.thumb_func
  95              		.fpu fpv4-sp-d16
  97              	XPT2046_WriteCMD:
  98              	.LVL8:
  99              	.LFB127:
  22:user/touch.c  **** 
  23:user/touch.c  **** /**
  24:user/touch.c  ****   * 函数功能: 写命令
  25:user/touch.c  ****   * 输入参数: CHX 	0x90 	//通道Y+的选择控制字 
  26:user/touch.c  ****   *           CHY   0xd0	//通道X+的选择控制字
  27:user/touch.c  ****   * 返 回 值: 无
  28:user/touch.c  ****   * 说    明：无
  29:user/touch.c  ****   */
  30:user/touch.c  **** static void XPT2046_WriteCMD(uint8_t ucCmd)
  31:user/touch.c  **** {
 100              		.loc 1 31 1 is_stmt 1 view -0
 101              		.cfi_startproc
 102              		@ args = 0, pretend = 0, frame = 0
 103              		@ frame_needed = 0, uses_anonymous_args = 0
 104              		.loc 1 31 1 is_stmt 0 view .LVU20
 105 0000 70B5     		push	{r4, r5, r6, lr}
 106              	.LCFI2:
 107              		.cfi_def_cfa_offset 16
 108              		.cfi_offset 4, -16
 109              		.cfi_offset 5, -12
 110              		.cfi_offset 6, -8
 111              		.cfi_offset 14, -4
 112 0002 0646     		mov	r6, r0
  32:user/touch.c  ****     uint8_t i;
 113              		.loc 1 32 5 is_stmt 1 view .LVU21
  33:user/touch.c  **** 
  34:user/touch.c  ****     XPT2046_MOSI_LOW();
 114              		.loc 1 34 5 view .LVU22
 115 0004 0022     		movs	r2, #0
 116 0006 4FF40061 		mov	r1, #2048
 117 000a 1A48     		ldr	r0, .L15
 118              	.LVL9:
 119              		.loc 1 34 5 is_stmt 0 view .LVU23
 120 000c FFF7FEFF 		bl	HAL_GPIO_WritePin
 121              	.LVL10:
  35:user/touch.c  ****     XPT2046_CLK_LOW();
 122              		.loc 1 35 5 is_stmt 1 view .LVU24
 123 0010 0022     		movs	r2, #0
 124 0012 0121     		movs	r1, #1
 125 0014 1848     		ldr	r0, .L15+4
 126 0016 FFF7FEFF 		bl	HAL_GPIO_WritePin
 127              	.LVL11:
  36:user/touch.c  **** 
  37:user/touch.c  ****     for (i = 0; i < 8; i++)
 128              		.loc 1 37 5 view .LVU25
 129              		.loc 1 37 12 is_stmt 0 view .LVU26
 130 001a 0024     		movs	r4, #0
 131              		.loc 1 37 5 view .LVU27
 132 001c 18E0     		b	.L9
ARM GAS  C:\Users\gx\AppData\Local\Temp\ccouHbLM.s 			page 4


 133              	.LVL12:
 134              	.L10:
  38:user/touch.c  ****     {
  39:user/touch.c  ****         ((ucCmd >> (7 - i)) & 0x01) ? XPT2046_MOSI_HIGH() : XPT2046_MOSI_LOW();
 135              		.loc 1 39 61 discriminator 2 view .LVU28
 136 001e 0022     		movs	r2, #0
 137 0020 4FF40061 		mov	r1, #2048
 138 0024 1348     		ldr	r0, .L15
 139 0026 FFF7FEFF 		bl	HAL_GPIO_WritePin
 140              	.LVL13:
 141              	.L11:
  40:user/touch.c  ****         XPT2046_DelayUS(5);
 142              		.loc 1 40 9 is_stmt 1 discriminator 2 view .LVU29
 143 002a 0520     		movs	r0, #5
 144 002c FFF7FEFF 		bl	XPT2046_DelayUS
 145              	.LVL14:
  41:user/touch.c  ****         XPT2046_CLK_HIGH();
 146              		.loc 1 41 9 discriminator 2 view .LVU30
 147 0030 114D     		ldr	r5, .L15+4
 148 0032 0122     		movs	r2, #1
 149 0034 1146     		mov	r1, r2
 150 0036 2846     		mov	r0, r5
 151 0038 FFF7FEFF 		bl	HAL_GPIO_WritePin
 152              	.LVL15:
  42:user/touch.c  ****         XPT2046_DelayUS(5);
 153              		.loc 1 42 9 discriminator 2 view .LVU31
 154 003c 0520     		movs	r0, #5
 155 003e FFF7FEFF 		bl	XPT2046_DelayUS
 156              	.LVL16:
  43:user/touch.c  ****         XPT2046_CLK_LOW();
 157              		.loc 1 43 9 discriminator 2 view .LVU32
 158 0042 0022     		movs	r2, #0
 159 0044 0121     		movs	r1, #1
 160 0046 2846     		mov	r0, r5
 161 0048 FFF7FEFF 		bl	HAL_GPIO_WritePin
 162              	.LVL17:
  37:user/touch.c  ****     {
 163              		.loc 1 37 24 discriminator 2 view .LVU33
  37:user/touch.c  ****     {
 164              		.loc 1 37 25 is_stmt 0 discriminator 2 view .LVU34
 165 004c 0134     		adds	r4, r4, #1
 166              	.LVL18:
  37:user/touch.c  ****     {
 167              		.loc 1 37 25 discriminator 2 view .LVU35
 168 004e E4B2     		uxtb	r4, r4
 169              	.LVL19:
 170              	.L9:
  37:user/touch.c  ****     {
 171              		.loc 1 37 17 is_stmt 1 discriminator 1 view .LVU36
  37:user/touch.c  ****     {
 172              		.loc 1 37 5 is_stmt 0 discriminator 1 view .LVU37
 173 0050 072C     		cmp	r4, #7
 174 0052 0DD8     		bhi	.L14
  39:user/touch.c  ****         XPT2046_DelayUS(5);
 175              		.loc 1 39 9 is_stmt 1 view .LVU38
  39:user/touch.c  ****         XPT2046_DelayUS(5);
 176              		.loc 1 39 23 is_stmt 0 view .LVU39
ARM GAS  C:\Users\gx\AppData\Local\Temp\ccouHbLM.s 			page 5


 177 0054 C4F10703 		rsb	r3, r4, #7
  39:user/touch.c  ****         XPT2046_DelayUS(5);
 178              		.loc 1 39 17 view .LVU40
 179 0058 46FA03F3 		asr	r3, r6, r3
  39:user/touch.c  ****         XPT2046_DelayUS(5);
 180              		.loc 1 39 59 view .LVU41
 181 005c 13F0010F 		tst	r3, #1
 182 0060 DDD0     		beq	.L10
  39:user/touch.c  ****         XPT2046_DelayUS(5);
 183              		.loc 1 39 39 discriminator 1 view .LVU42
 184 0062 0122     		movs	r2, #1
 185 0064 4FF40061 		mov	r1, #2048
 186 0068 0248     		ldr	r0, .L15
 187 006a FFF7FEFF 		bl	HAL_GPIO_WritePin
 188              	.LVL20:
 189 006e DCE7     		b	.L11
 190              	.L14:
  44:user/touch.c  ****     }
  45:user/touch.c  **** }
 191              		.loc 1 45 1 view .LVU43
 192 0070 70BD     		pop	{r4, r5, r6, pc}
 193              	.LVL21:
 194              	.L16:
 195              		.loc 1 45 1 view .LVU44
 196 0072 00BF     		.align	2
 197              	.L15:
 198 0074 00140240 		.word	1073878016
 199 0078 00040240 		.word	1073873920
 200              		.cfi_endproc
 201              	.LFE127:
 203              		.section	.text.XPT2046_ReadCMD,"ax",%progbits
 204              		.align	1
 205              		.syntax unified
 206              		.thumb
 207              		.thumb_func
 208              		.fpu fpv4-sp-d16
 210              	XPT2046_ReadCMD:
 211              	.LFB128:
  46:user/touch.c  **** 
  47:user/touch.c  **** /**
  48:user/touch.c  ****   * 函数功能: 读数据
  49:user/touch.c  ****   * 输入参数: 无
  50:user/touch.c  ****   * 返 回 值: short：读到的数据
  51:user/touch.c  ****   * 说    明：无
  52:user/touch.c  ****   */
  53:user/touch.c  **** static uint16_t XPT2046_ReadCMD(void)
  54:user/touch.c  **** {
 212              		.loc 1 54 1 is_stmt 1 view -0
 213              		.cfi_startproc
 214              		@ args = 0, pretend = 0, frame = 0
 215              		@ frame_needed = 0, uses_anonymous_args = 0
 216 0000 70B5     		push	{r4, r5, r6, lr}
 217              	.LCFI3:
 218              		.cfi_def_cfa_offset 16
 219              		.cfi_offset 4, -16
 220              		.cfi_offset 5, -12
 221              		.cfi_offset 6, -8
ARM GAS  C:\Users\gx\AppData\Local\Temp\ccouHbLM.s 			page 6


 222              		.cfi_offset 14, -4
  55:user/touch.c  ****     uint8_t i;
 223              		.loc 1 55 5 view .LVU46
  56:user/touch.c  ****     uint16_t usBuf = 0, usTemp;
 224              		.loc 1 56 5 view .LVU47
 225              	.LVL22:
  57:user/touch.c  **** 
  58:user/touch.c  ****     XPT2046_MOSI_LOW();
 226              		.loc 1 58 5 view .LVU48
 227 0002 0022     		movs	r2, #0
 228 0004 4FF40061 		mov	r1, #2048
 229 0008 1248     		ldr	r0, .L22
 230 000a FFF7FEFF 		bl	HAL_GPIO_WritePin
 231              	.LVL23:
  59:user/touch.c  ****     XPT2046_CLK_HIGH();
 232              		.loc 1 59 5 view .LVU49
 233 000e 0122     		movs	r2, #1
 234 0010 1146     		mov	r1, r2
 235 0012 1148     		ldr	r0, .L22+4
 236 0014 FFF7FEFF 		bl	HAL_GPIO_WritePin
 237              	.LVL24:
  60:user/touch.c  ****     for (i = 0; i < 12; i++)
 238              		.loc 1 60 5 view .LVU50
  56:user/touch.c  **** 
 239              		.loc 1 56 14 is_stmt 0 view .LVU51
 240 0018 0025     		movs	r5, #0
 241              		.loc 1 60 12 view .LVU52
 242 001a 2C46     		mov	r4, r5
 243              	.LVL25:
 244              	.L18:
 245              		.loc 1 60 17 is_stmt 1 discriminator 1 view .LVU53
 246              		.loc 1 60 5 is_stmt 0 discriminator 1 view .LVU54
 247 001c 0B2C     		cmp	r4, #11
 248 001e 16D8     		bhi	.L21
  61:user/touch.c  ****     {
  62:user/touch.c  ****         XPT2046_CLK_LOW();
 249              		.loc 1 62 9 is_stmt 1 discriminator 3 view .LVU55
 250 0020 0D4E     		ldr	r6, .L22+4
 251 0022 0022     		movs	r2, #0
 252 0024 0121     		movs	r1, #1
 253 0026 3046     		mov	r0, r6
 254 0028 FFF7FEFF 		bl	HAL_GPIO_WritePin
 255              	.LVL26:
  63:user/touch.c  ****         usTemp = XPT2046_MISO_READ();
 256              		.loc 1 63 9 discriminator 3 view .LVU56
 257              		.loc 1 63 18 is_stmt 0 discriminator 3 view .LVU57
 258 002c 0421     		movs	r1, #4
 259 002e 3046     		mov	r0, r6
 260 0030 FFF7FEFF 		bl	HAL_GPIO_ReadPin
 261              	.LVL27:
  64:user/touch.c  ****         usBuf |= usTemp << (11 - i);
 262              		.loc 1 64 9 is_stmt 1 discriminator 3 view .LVU58
 263              		.loc 1 64 32 is_stmt 0 discriminator 3 view .LVU59
 264 0034 C4F10B03 		rsb	r3, r4, #11
 265              		.loc 1 64 25 discriminator 3 view .LVU60
 266 0038 9840     		lsls	r0, r0, r3
 267              	.LVL28:
ARM GAS  C:\Users\gx\AppData\Local\Temp\ccouHbLM.s 			page 7


 268              		.loc 1 64 15 discriminator 3 view .LVU61
 269 003a 0543     		orrs	r5, r5, r0
 270              	.LVL29:
 271              		.loc 1 64 15 discriminator 3 view .LVU62
 272 003c ADB2     		uxth	r5, r5
 273              	.LVL30:
  65:user/touch.c  ****         XPT2046_CLK_HIGH();
 274              		.loc 1 65 9 is_stmt 1 discriminator 3 view .LVU63
 275 003e 0122     		movs	r2, #1
 276 0040 1146     		mov	r1, r2
 277 0042 3046     		mov	r0, r6
 278 0044 FFF7FEFF 		bl	HAL_GPIO_WritePin
 279              	.LVL31:
  60:user/touch.c  ****     {
 280              		.loc 1 60 25 discriminator 3 view .LVU64
  60:user/touch.c  ****     {
 281              		.loc 1 60 26 is_stmt 0 discriminator 3 view .LVU65
 282 0048 0134     		adds	r4, r4, #1
 283              	.LVL32:
  60:user/touch.c  ****     {
 284              		.loc 1 60 26 discriminator 3 view .LVU66
 285 004a E4B2     		uxtb	r4, r4
 286              	.LVL33:
  60:user/touch.c  ****     {
 287              		.loc 1 60 26 discriminator 3 view .LVU67
 288 004c E6E7     		b	.L18
 289              	.L21:
  66:user/touch.c  ****     }
  67:user/touch.c  ****     return usBuf;
 290              		.loc 1 67 5 is_stmt 1 view .LVU68
  68:user/touch.c  **** }
 291              		.loc 1 68 1 is_stmt 0 view .LVU69
 292 004e 2846     		mov	r0, r5
 293 0050 70BD     		pop	{r4, r5, r6, pc}
 294              	.LVL34:
 295              	.L23:
 296              		.loc 1 68 1 view .LVU70
 297 0052 00BF     		.align	2
 298              	.L22:
 299 0054 00140240 		.word	1073878016
 300 0058 00040240 		.word	1073873920
 301              		.cfi_endproc
 302              	.LFE128:
 304              		.section	.text.XPT2046_ReadAdc,"ax",%progbits
 305              		.align	1
 306              		.global	XPT2046_ReadAdc
 307              		.syntax unified
 308              		.thumb
 309              		.thumb_func
 310              		.fpu fpv4-sp-d16
 312              	XPT2046_ReadAdc:
 313              	.LVL35:
 314              	.LFB129:
  69:user/touch.c  **** 
  70:user/touch.c  **** /**
  71:user/touch.c  ****   * 函数功能: 选择一个模拟通道，启动ADC，并返回ADC采样结果
  72:user/touch.c  ****   * 输入参数: _ucCh = 0x90 表示Y通道；
ARM GAS  C:\Users\gx\AppData\Local\Temp\ccouHbLM.s 			page 8


  73:user/touch.c  ****   *                   0xd0 表示X通道
  74:user/touch.c  ****   * 返 回 值: 无
  75:user/touch.c  ****   * 说    明：无
  76:user/touch.c  ****   */
  77:user/touch.c  **** uint16_t XPT2046_ReadAdc(uint8_t _ucCh)
  78:user/touch.c  **** {
 315              		.loc 1 78 1 is_stmt 1 view -0
 316              		.cfi_startproc
 317              		@ args = 0, pretend = 0, frame = 0
 318              		@ frame_needed = 0, uses_anonymous_args = 0
 319              		.loc 1 78 1 is_stmt 0 view .LVU72
 320 0000 08B5     		push	{r3, lr}
 321              	.LCFI4:
 322              		.cfi_def_cfa_offset 8
 323              		.cfi_offset 3, -8
 324              		.cfi_offset 14, -4
  79:user/touch.c  ****     XPT2046_WriteCMD(_ucCh);
 325              		.loc 1 79 5 is_stmt 1 view .LVU73
 326 0002 FFF7FEFF 		bl	XPT2046_WriteCMD
 327              	.LVL36:
  80:user/touch.c  ****     return XPT2046_ReadCMD();
 328              		.loc 1 80 5 view .LVU74
 329              		.loc 1 80 12 is_stmt 0 view .LVU75
 330 0006 FFF7FEFF 		bl	XPT2046_ReadCMD
 331              	.LVL37:
  81:user/touch.c  **** }
 332              		.loc 1 81 1 view .LVU76
 333 000a 08BD     		pop	{r3, pc}
 334              		.cfi_endproc
 335              	.LFE129:
 337              		.section	.text.XPT2046_ReadAdc_Fliter,"ax",%progbits
 338              		.align	1
 339              		.global	XPT2046_ReadAdc_Fliter
 340              		.syntax unified
 341              		.thumb
 342              		.thumb_func
 343              		.fpu fpv4-sp-d16
 345              	XPT2046_ReadAdc_Fliter:
 346              	.LVL38:
 347              	.LFB130:
  82:user/touch.c  **** 
  83:user/touch.c  **** #define SAMP_CNT 4      // 定义采集次数
  84:user/touch.c  **** #define SAMP_CNT_DIV2 2 // 采集次数/2
  85:user/touch.c  **** /**
  86:user/touch.c  ****   * 函数功能: 选择一个模拟通道，启动ADC，并返回ADC采样结果
  87:user/touch.c  ****   * 输入参数: channel ：通道选择
  88:user/touch.c  ****   *           参数值：0x90 :通道Y
  89:user/touch.c  ****   *           参数值：0xd0 :通道X
  90:user/touch.c  ****   * 返 回 值: 滤波后的12位ADC值
  91:user/touch.c  ****   * 说    明：无
  92:user/touch.c  ****   */
  93:user/touch.c  **** uint16_t XPT2046_ReadAdc_Fliter(uint8_t channel)
  94:user/touch.c  **** {
 348              		.loc 1 94 1 is_stmt 1 view -0
 349              		.cfi_startproc
 350              		@ args = 0, pretend = 0, frame = 8
 351              		@ frame_needed = 0, uses_anonymous_args = 0
ARM GAS  C:\Users\gx\AppData\Local\Temp\ccouHbLM.s 			page 9


 352              		.loc 1 94 1 is_stmt 0 view .LVU78
 353 0000 70B5     		push	{r4, r5, r6, lr}
 354              	.LCFI5:
 355              		.cfi_def_cfa_offset 16
 356              		.cfi_offset 4, -16
 357              		.cfi_offset 5, -12
 358              		.cfi_offset 6, -8
 359              		.cfi_offset 14, -4
 360 0002 82B0     		sub	sp, sp, #8
 361              	.LCFI6:
 362              		.cfi_def_cfa_offset 24
 363 0004 0646     		mov	r6, r0
  95:user/touch.c  ****     uint8_t i, j, min;
 364              		.loc 1 95 5 is_stmt 1 view .LVU79
  96:user/touch.c  ****     uint16_t temp;
 365              		.loc 1 96 5 view .LVU80
  97:user/touch.c  ****     uint16_t tempXY[SAMP_CNT];
 366              		.loc 1 97 5 view .LVU81
  98:user/touch.c  **** 
  99:user/touch.c  ****     static uint16_t adc_x = 0, adc_y = 0;
 367              		.loc 1 99 5 view .LVU82
 100:user/touch.c  **** 
 101:user/touch.c  ****     /* 如果检查到触摸屏被按下，才进行触摸屏通道采集，否则直接退出函数 */
 102:user/touch.c  ****     /* 通过触摸屏IRQ引脚可以判断触摸屏是否被触摸，有被触摸时为低电平，否则为高电平 */
 103:user/touch.c  ****     if (XPT2046_EXTI_Read() == 0)
 368              		.loc 1 103 5 view .LVU83
 369              		.loc 1 103 9 is_stmt 0 view .LVU84
 370 0006 0221     		movs	r1, #2
 371 0008 2D48     		ldr	r0, .L46
 372              	.LVL39:
 373              		.loc 1 103 9 view .LVU85
 374 000a FFF7FEFF 		bl	HAL_GPIO_ReadPin
 375              	.LVL40:
 376              		.loc 1 103 8 view .LVU86
 377 000e 10B9     		cbnz	r0, .L41
 378 0010 0446     		mov	r4, r0
 104:user/touch.c  ****     {
 105:user/touch.c  ****         /* 连续采样SAMP_CNT次数的数据 */
 106:user/touch.c  ****         for (i = 0; i < SAMP_CNT; i++)
 379              		.loc 1 106 16 view .LVU87
 380 0012 0546     		mov	r5, r0
 381 0014 0EE0     		b	.L27
 382              	.L41:
 107:user/touch.c  ****         {
 108:user/touch.c  ****             XPT2046_WriteCMD(channel);
 109:user/touch.c  ****             tempXY[i] = XPT2046_ReadCMD();
 110:user/touch.c  ****         }
 111:user/touch.c  ****         /* 降序排列 */
 112:user/touch.c  ****         for (i = 0; i < SAMP_CNT - 1; i++)
 113:user/touch.c  ****         {
 114:user/touch.c  ****             min = i;
 115:user/touch.c  ****             for (j = i + 1; j < SAMP_CNT; j++)
 116:user/touch.c  ****             {
 117:user/touch.c  ****                 if (tempXY[min] > tempXY[j])
 118:user/touch.c  ****                     min = j;
 119:user/touch.c  ****             }
 120:user/touch.c  ****             temp = tempXY[i];
ARM GAS  C:\Users\gx\AppData\Local\Temp\ccouHbLM.s 			page 10


 121:user/touch.c  ****             tempXY[i] = tempXY[min];
 122:user/touch.c  ****             tempXY[min] = temp;
 123:user/touch.c  ****         }
 124:user/touch.c  **** 
 125:user/touch.c  ****         // 设定阈值
 126:user/touch.c  ****         if ((tempXY[SAMP_CNT_DIV2] - tempXY[SAMP_CNT_DIV2 - 1]) > 5)
 127:user/touch.c  ****         {
 128:user/touch.c  ****             /* 若两个中间值相差太远，则舍弃这个新数据，返回上一次的触摸数据*/
 129:user/touch.c  ****             if (channel == XPT2046_CHANNEL_Y)
 130:user/touch.c  ****                 return adc_x; //x通道
 131:user/touch.c  ****             else
 132:user/touch.c  ****                 return adc_y; //y通道
 133:user/touch.c  ****         }
 134:user/touch.c  **** 
 135:user/touch.c  ****         // 求中间值的均值
 136:user/touch.c  ****         if (channel == XPT2046_CHANNEL_Y)
 137:user/touch.c  ****         {
 138:user/touch.c  ****             adc_x = (tempXY[SAMP_CNT_DIV2] + tempXY[SAMP_CNT_DIV2 - 1]) / 2;
 139:user/touch.c  ****             //printf("x->%d \n",adc_x);
 140:user/touch.c  ****             return adc_x;
 141:user/touch.c  ****         }
 142:user/touch.c  ****         else
 143:user/touch.c  ****         {
 144:user/touch.c  ****             adc_y = (tempXY[SAMP_CNT_DIV2] + tempXY[SAMP_CNT_DIV2 - 1]) / 2;
 145:user/touch.c  ****             //printf("y->%d ",adc_y);
 146:user/touch.c  ****             return adc_y;
 147:user/touch.c  ****         }
 148:user/touch.c  ****     }
 149:user/touch.c  ****     else
 150:user/touch.c  ****     {
 151:user/touch.c  ****         return 0; //没有触摸，返回0
 383              		.loc 1 151 16 view .LVU88
 384 0016 0020     		movs	r0, #0
 385              	.L28:
 152:user/touch.c  ****     }
 153:user/touch.c  **** }
 386              		.loc 1 153 1 view .LVU89
 387 0018 02B0     		add	sp, sp, #8
 388              	.LCFI7:
 389              		.cfi_remember_state
 390              		.cfi_def_cfa_offset 16
 391              		@ sp needed
 392 001a 70BD     		pop	{r4, r5, r6, pc}
 393              	.LVL41:
 394              	.L29:
 395              	.LCFI8:
 396              		.cfi_restore_state
 108:user/touch.c  ****             tempXY[i] = XPT2046_ReadCMD();
 397              		.loc 1 108 13 is_stmt 1 discriminator 3 view .LVU90
 398 001c 3046     		mov	r0, r6
 399 001e FFF7FEFF 		bl	XPT2046_WriteCMD
 400              	.LVL42:
 109:user/touch.c  ****         }
 401              		.loc 1 109 13 discriminator 3 view .LVU91
 109:user/touch.c  ****         }
 402              		.loc 1 109 25 is_stmt 0 discriminator 3 view .LVU92
 403 0022 FFF7FEFF 		bl	XPT2046_ReadCMD
ARM GAS  C:\Users\gx\AppData\Local\Temp\ccouHbLM.s 			page 11


 404              	.LVL43:
 109:user/touch.c  ****         }
 405              		.loc 1 109 23 discriminator 3 view .LVU93
 406 0026 02AB     		add	r3, sp, #8
 407 0028 03EB4503 		add	r3, r3, r5, lsl #1
 408 002c 23F8080C 		strh	r0, [r3, #-8]	@ movhi
 106:user/touch.c  ****         {
 409              		.loc 1 106 35 is_stmt 1 discriminator 3 view .LVU94
 106:user/touch.c  ****         {
 410              		.loc 1 106 36 is_stmt 0 discriminator 3 view .LVU95
 411 0030 0135     		adds	r5, r5, #1
 412              	.LVL44:
 106:user/touch.c  ****         {
 413              		.loc 1 106 36 discriminator 3 view .LVU96
 414 0032 EDB2     		uxtb	r5, r5
 415              	.LVL45:
 416              	.L27:
 106:user/touch.c  ****         {
 417              		.loc 1 106 21 is_stmt 1 discriminator 1 view .LVU97
 106:user/touch.c  ****         {
 418              		.loc 1 106 9 is_stmt 0 discriminator 1 view .LVU98
 419 0034 032D     		cmp	r5, #3
 420 0036 F1D9     		bls	.L29
 421 0038 20E0     		b	.L30
 422              	.LVL46:
 423              	.L32:
 115:user/touch.c  ****             {
 424              		.loc 1 115 43 is_stmt 1 discriminator 2 view .LVU99
 115:user/touch.c  ****             {
 425              		.loc 1 115 44 is_stmt 0 discriminator 2 view .LVU100
 426 003a 0133     		adds	r3, r3, #1
 427              	.LVL47:
 115:user/touch.c  ****             {
 428              		.loc 1 115 44 discriminator 2 view .LVU101
 429 003c DBB2     		uxtb	r3, r3
 430              	.LVL48:
 431              	.L31:
 115:user/touch.c  ****             {
 432              		.loc 1 115 29 is_stmt 1 discriminator 1 view .LVU102
 115:user/touch.c  ****             {
 433              		.loc 1 115 13 is_stmt 0 discriminator 1 view .LVU103
 434 003e 032B     		cmp	r3, #3
 435 0040 0DD8     		bhi	.L42
 117:user/touch.c  ****                     min = j;
 436              		.loc 1 117 17 is_stmt 1 view .LVU104
 117:user/touch.c  ****                     min = j;
 437              		.loc 1 117 27 is_stmt 0 view .LVU105
 438 0042 02A9     		add	r1, sp, #8
 439 0044 01EB4201 		add	r1, r1, r2, lsl #1
 440 0048 31F8080C 		ldrh	r0, [r1, #-8]
 117:user/touch.c  ****                     min = j;
 441              		.loc 1 117 41 view .LVU106
 442 004c 02A9     		add	r1, sp, #8
 443 004e 01EB4301 		add	r1, r1, r3, lsl #1
 444 0052 31F8081C 		ldrh	r1, [r1, #-8]
 117:user/touch.c  ****                     min = j;
 445              		.loc 1 117 20 view .LVU107
ARM GAS  C:\Users\gx\AppData\Local\Temp\ccouHbLM.s 			page 12


 446 0056 8842     		cmp	r0, r1
 447 0058 EFD9     		bls	.L32
 118:user/touch.c  ****             }
 448              		.loc 1 118 25 view .LVU108
 449 005a 1A46     		mov	r2, r3
 450              	.LVL49:
 118:user/touch.c  ****             }
 451              		.loc 1 118 25 view .LVU109
 452 005c EDE7     		b	.L32
 453              	.LVL50:
 454              	.L42:
 120:user/touch.c  ****             tempXY[i] = tempXY[min];
 455              		.loc 1 120 13 is_stmt 1 discriminator 2 view .LVU110
 120:user/touch.c  ****             tempXY[i] = tempXY[min];
 456              		.loc 1 120 18 is_stmt 0 discriminator 2 view .LVU111
 457 005e 02AB     		add	r3, sp, #8
 458              	.LVL51:
 120:user/touch.c  ****             tempXY[i] = tempXY[min];
 459              		.loc 1 120 18 discriminator 2 view .LVU112
 460 0060 03EB4404 		add	r4, r3, r4, lsl #1
 461              	.LVL52:
 120:user/touch.c  ****             tempXY[i] = tempXY[min];
 462              		.loc 1 120 18 discriminator 2 view .LVU113
 463 0064 34F8083C 		ldrh	r3, [r4, #-8]
 464              	.LVL53:
 121:user/touch.c  ****             tempXY[min] = temp;
 465              		.loc 1 121 13 is_stmt 1 discriminator 2 view .LVU114
 121:user/touch.c  ****             tempXY[min] = temp;
 466              		.loc 1 121 31 is_stmt 0 discriminator 2 view .LVU115
 467 0068 02A9     		add	r1, sp, #8
 468 006a 01EB4202 		add	r2, r1, r2, lsl #1
 469              	.LVL54:
 121:user/touch.c  ****             tempXY[min] = temp;
 470              		.loc 1 121 31 discriminator 2 view .LVU116
 471 006e 32F8081C 		ldrh	r1, [r2, #-8]
 121:user/touch.c  ****             tempXY[min] = temp;
 472              		.loc 1 121 23 discriminator 2 view .LVU117
 473 0072 24F8081C 		strh	r1, [r4, #-8]	@ movhi
 122:user/touch.c  ****         }
 474              		.loc 1 122 13 is_stmt 1 discriminator 2 view .LVU118
 122:user/touch.c  ****         }
 475              		.loc 1 122 25 is_stmt 0 discriminator 2 view .LVU119
 476 0076 22F8083C 		strh	r3, [r2, #-8]	@ movhi
 112:user/touch.c  ****         {
 477              		.loc 1 112 39 is_stmt 1 discriminator 2 view .LVU120
 478              	.LVL55:
 112:user/touch.c  ****         {
 479              		.loc 1 112 40 is_stmt 0 discriminator 2 view .LVU121
 480 007a 2C46     		mov	r4, r5
 481              	.LVL56:
 482              	.L30:
 112:user/touch.c  ****         {
 483              		.loc 1 112 21 is_stmt 1 discriminator 1 view .LVU122
 112:user/touch.c  ****         {
 484              		.loc 1 112 9 is_stmt 0 discriminator 1 view .LVU123
 485 007c 022C     		cmp	r4, #2
 486 007e 04D8     		bhi	.L43
ARM GAS  C:\Users\gx\AppData\Local\Temp\ccouHbLM.s 			page 13


 114:user/touch.c  ****             for (j = i + 1; j < SAMP_CNT; j++)
 487              		.loc 1 114 13 is_stmt 1 view .LVU124
 488              	.LVL57:
 115:user/touch.c  ****             {
 489              		.loc 1 115 13 view .LVU125
 115:user/touch.c  ****             {
 490              		.loc 1 115 20 is_stmt 0 view .LVU126
 491 0080 651C     		adds	r5, r4, #1
 492 0082 EDB2     		uxtb	r5, r5
 493              	.LVL58:
 114:user/touch.c  ****             for (j = i + 1; j < SAMP_CNT; j++)
 494              		.loc 1 114 17 view .LVU127
 495 0084 2246     		mov	r2, r4
 115:user/touch.c  ****             {
 496              		.loc 1 115 20 view .LVU128
 497 0086 2B46     		mov	r3, r5
 115:user/touch.c  ****             {
 498              		.loc 1 115 13 view .LVU129
 499 0088 D9E7     		b	.L31
 500              	.LVL59:
 501              	.L43:
 126:user/touch.c  ****         {
 502              		.loc 1 126 9 is_stmt 1 view .LVU130
 126:user/touch.c  ****         {
 503              		.loc 1 126 20 is_stmt 0 view .LVU131
 504 008a BDF80400 		ldrh	r0, [sp, #4]
 126:user/touch.c  ****         {
 505              		.loc 1 126 44 view .LVU132
 506 008e BDF80230 		ldrh	r3, [sp, #2]
 126:user/touch.c  ****         {
 507              		.loc 1 126 36 view .LVU133
 508 0092 C21A     		subs	r2, r0, r3
 126:user/touch.c  ****         {
 509              		.loc 1 126 12 view .LVU134
 510 0094 052A     		cmp	r2, #5
 511 0096 07DD     		ble	.L35
 129:user/touch.c  ****                 return adc_x; //x通道
 512              		.loc 1 129 13 is_stmt 1 view .LVU135
 129:user/touch.c  ****                 return adc_x; //x通道
 513              		.loc 1 129 16 is_stmt 0 view .LVU136
 514 0098 D02E     		cmp	r6, #208
 515 009a 02D0     		beq	.L44
 132:user/touch.c  ****         }
 516              		.loc 1 132 17 is_stmt 1 view .LVU137
 132:user/touch.c  ****         }
 517              		.loc 1 132 24 is_stmt 0 view .LVU138
 518 009c 094B     		ldr	r3, .L46+4
 519 009e 1888     		ldrh	r0, [r3]
 520 00a0 BAE7     		b	.L28
 521              	.L44:
 130:user/touch.c  ****             else
 522              		.loc 1 130 17 is_stmt 1 view .LVU139
 130:user/touch.c  ****             else
 523              		.loc 1 130 24 is_stmt 0 view .LVU140
 524 00a2 094B     		ldr	r3, .L46+8
 525 00a4 1888     		ldrh	r0, [r3]
 526 00a6 B7E7     		b	.L28
ARM GAS  C:\Users\gx\AppData\Local\Temp\ccouHbLM.s 			page 14


 527              	.L35:
 136:user/touch.c  ****         {
 528              		.loc 1 136 9 is_stmt 1 view .LVU141
 136:user/touch.c  ****         {
 529              		.loc 1 136 12 is_stmt 0 view .LVU142
 530 00a8 D02E     		cmp	r6, #208
 531 00aa 04D0     		beq	.L45
 144:user/touch.c  ****             //printf("y->%d ",adc_y);
 532              		.loc 1 144 13 is_stmt 1 view .LVU143
 144:user/touch.c  ****             //printf("y->%d ",adc_y);
 533              		.loc 1 144 73 is_stmt 0 view .LVU144
 534 00ac 1844     		add	r0, r0, r3
 144:user/touch.c  ****             //printf("y->%d ",adc_y);
 535              		.loc 1 144 19 view .LVU145
 536 00ae 4008     		lsrs	r0, r0, #1
 537 00b0 044B     		ldr	r3, .L46+4
 538 00b2 1880     		strh	r0, [r3]	@ movhi
 146:user/touch.c  ****         }
 539              		.loc 1 146 13 is_stmt 1 view .LVU146
 146:user/touch.c  ****         }
 540              		.loc 1 146 20 is_stmt 0 view .LVU147
 541 00b4 B0E7     		b	.L28
 542              	.L45:
 138:user/touch.c  ****             //printf("x->%d \n",adc_x);
 543              		.loc 1 138 13 is_stmt 1 view .LVU148
 138:user/touch.c  ****             //printf("x->%d \n",adc_x);
 544              		.loc 1 138 73 is_stmt 0 view .LVU149
 545 00b6 1844     		add	r0, r0, r3
 138:user/touch.c  ****             //printf("x->%d \n",adc_x);
 546              		.loc 1 138 19 view .LVU150
 547 00b8 4008     		lsrs	r0, r0, #1
 548 00ba 034B     		ldr	r3, .L46+8
 549 00bc 1880     		strh	r0, [r3]	@ movhi
 140:user/touch.c  ****         }
 550              		.loc 1 140 13 is_stmt 1 view .LVU151
 140:user/touch.c  ****         }
 551              		.loc 1 140 20 is_stmt 0 view .LVU152
 552 00be ABE7     		b	.L28
 553              	.L47:
 554              		.align	2
 555              	.L46:
 556 00c0 00040240 		.word	1073873920
 557 00c4 00000000 		.word	.LANCHOR1
 558 00c8 00000000 		.word	.LANCHOR0
 559              		.cfi_endproc
 560              	.LFE130:
 562              		.global	cal_value
 563              		.section	.bss.adc_x.10004,"aw",%nobits
 564              		.align	1
 565              		.set	.LANCHOR0,. + 0
 568              	adc_x.10004:
 569 0000 0000     		.space	2
 570              		.section	.bss.adc_y.10005,"aw",%nobits
 571              		.align	1
 572              		.set	.LANCHOR1,. + 0
 575              	adc_y.10005:
 576 0000 0000     		.space	2
ARM GAS  C:\Users\gx\AppData\Local\Temp\ccouHbLM.s 			page 15


 577              		.section	.bss.cal_value,"aw",%nobits
 578              		.align	2
 581              	cal_value:
 582 0000 00000000 		.space	112
 582      00000000 
 582      00000000 
 582      00000000 
 582      00000000 
 583              		.text
 584              	.Letext0:
 585              		.file 2 "c:\\program files (x86)\\gnu arm embedded toolchain\\9 2020-q2-update\\arm-none-eabi\\inc
 586              		.file 3 "c:\\program files (x86)\\gnu arm embedded toolchain\\9 2020-q2-update\\arm-none-eabi\\inc
 587              		.file 4 "Drivers/CMSIS/Include/core_cm4.h"
 588              		.file 5 "Drivers/CMSIS/Device/ST/STM32F4xx/Include/system_stm32f4xx.h"
 589              		.file 6 "Drivers/CMSIS/Device/ST/STM32F4xx/Include/stm32f407xx.h"
 590              		.file 7 "c:\\program files (x86)\\gnu arm embedded toolchain\\9 2020-q2-update\\lib\\gcc\\arm-none
 591              		.file 8 "c:\\program files (x86)\\gnu arm embedded toolchain\\9 2020-q2-update\\arm-none-eabi\\inc
 592              		.file 9 "c:\\program files (x86)\\gnu arm embedded toolchain\\9 2020-q2-update\\arm-none-eabi\\inc
 593              		.file 10 "c:\\program files (x86)\\gnu arm embedded toolchain\\9 2020-q2-update\\arm-none-eabi\\in
 594              		.file 11 "user/touch.h"
 595              		.file 12 "Drivers/STM32F4xx_HAL_Driver/Inc/stm32f4xx_hal_gpio.h"
ARM GAS  C:\Users\gx\AppData\Local\Temp\ccouHbLM.s 			page 16

