ARM GAS  C:\Users\gx\AppData\Local\Temp\ccExyhW8.s 			page 1


   1              		.cpu cortex-m4
   2              		.eabi_attribute 27, 1
   3              		.eabi_attribute 28, 1
   4              		.eabi_attribute 20, 1
   5              		.eabi_attribute 21, 1
   6              		.eabi_attribute 23, 3
   7              		.eabi_attribute 24, 1
   8              		.eabi_attribute 25, 1
   9              		.eabi_attribute 26, 1
  10              		.eabi_attribute 30, 1
  11              		.eabi_attribute 34, 1
  12              		.eabi_attribute 18, 4
  13              		.file	"usbd_msc_scsi.c"
  14              		.text
  15              	.Ltext0:
  16              		.cfi_sections	.debug_frame
  17              		.section	.text.SCSI_Inquiry,"ax",%progbits
  18              		.align	1
  19              		.arch armv7e-m
  20              		.syntax unified
  21              		.thumb
  22              		.thumb_func
  23              		.fpu fpv4-sp-d16
  25              	SCSI_Inquiry:
  26              	.LVL0:
  27              	.LFB128:
  28              		.file 1 "Middlewares/ST/STM32_USB_Device_Library/Class/MSC/Src/usbd_msc_scsi.c"
   1:Middlewares/ST/STM32_USB_Device_Library/Class/MSC/Src/usbd_msc_scsi.c **** /**
   2:Middlewares/ST/STM32_USB_Device_Library/Class/MSC/Src/usbd_msc_scsi.c ****   ******************************************************************************
   3:Middlewares/ST/STM32_USB_Device_Library/Class/MSC/Src/usbd_msc_scsi.c ****   * @file    usbd_msc_scsi.c
   4:Middlewares/ST/STM32_USB_Device_Library/Class/MSC/Src/usbd_msc_scsi.c ****   * @author  MCD Application Team
   5:Middlewares/ST/STM32_USB_Device_Library/Class/MSC/Src/usbd_msc_scsi.c ****   * @version V2.4.2
   6:Middlewares/ST/STM32_USB_Device_Library/Class/MSC/Src/usbd_msc_scsi.c ****   * @date    11-December-2015
   7:Middlewares/ST/STM32_USB_Device_Library/Class/MSC/Src/usbd_msc_scsi.c ****   * @brief   This file provides all the USBD SCSI layer functions.
   8:Middlewares/ST/STM32_USB_Device_Library/Class/MSC/Src/usbd_msc_scsi.c ****   ******************************************************************************
   9:Middlewares/ST/STM32_USB_Device_Library/Class/MSC/Src/usbd_msc_scsi.c ****   * @attention
  10:Middlewares/ST/STM32_USB_Device_Library/Class/MSC/Src/usbd_msc_scsi.c ****   *
  11:Middlewares/ST/STM32_USB_Device_Library/Class/MSC/Src/usbd_msc_scsi.c ****   * <h2><center>&copy; COPYRIGHT 2015 STMicroelectronics</center></h2>
  12:Middlewares/ST/STM32_USB_Device_Library/Class/MSC/Src/usbd_msc_scsi.c ****   *
  13:Middlewares/ST/STM32_USB_Device_Library/Class/MSC/Src/usbd_msc_scsi.c ****   * Licensed under MCD-ST Liberty SW License Agreement V2, (the "License");
  14:Middlewares/ST/STM32_USB_Device_Library/Class/MSC/Src/usbd_msc_scsi.c ****   * You may not use this file except in compliance with the License.
  15:Middlewares/ST/STM32_USB_Device_Library/Class/MSC/Src/usbd_msc_scsi.c ****   * You may obtain a copy of the License at:
  16:Middlewares/ST/STM32_USB_Device_Library/Class/MSC/Src/usbd_msc_scsi.c ****   *
  17:Middlewares/ST/STM32_USB_Device_Library/Class/MSC/Src/usbd_msc_scsi.c ****   *        http://www.st.com/software_license_agreement_liberty_v2
  18:Middlewares/ST/STM32_USB_Device_Library/Class/MSC/Src/usbd_msc_scsi.c ****   *
  19:Middlewares/ST/STM32_USB_Device_Library/Class/MSC/Src/usbd_msc_scsi.c ****   * Unless required by applicable law or agreed to in writing, software 
  20:Middlewares/ST/STM32_USB_Device_Library/Class/MSC/Src/usbd_msc_scsi.c ****   * distributed under the License is distributed on an "AS IS" BASIS, 
  21:Middlewares/ST/STM32_USB_Device_Library/Class/MSC/Src/usbd_msc_scsi.c ****   * WITHOUT WARRANTIES OR CONDITIONS OF ANY KIND, either express or implied.
  22:Middlewares/ST/STM32_USB_Device_Library/Class/MSC/Src/usbd_msc_scsi.c ****   * See the License for the specific language governing permissions and
  23:Middlewares/ST/STM32_USB_Device_Library/Class/MSC/Src/usbd_msc_scsi.c ****   * limitations under the License.
  24:Middlewares/ST/STM32_USB_Device_Library/Class/MSC/Src/usbd_msc_scsi.c ****   *
  25:Middlewares/ST/STM32_USB_Device_Library/Class/MSC/Src/usbd_msc_scsi.c ****   ******************************************************************************
  26:Middlewares/ST/STM32_USB_Device_Library/Class/MSC/Src/usbd_msc_scsi.c ****   */ 
  27:Middlewares/ST/STM32_USB_Device_Library/Class/MSC/Src/usbd_msc_scsi.c **** 
  28:Middlewares/ST/STM32_USB_Device_Library/Class/MSC/Src/usbd_msc_scsi.c **** /* Includes ------------------------------------------------------------------*/
  29:Middlewares/ST/STM32_USB_Device_Library/Class/MSC/Src/usbd_msc_scsi.c **** #include "usbd_msc_bot.h"
  30:Middlewares/ST/STM32_USB_Device_Library/Class/MSC/Src/usbd_msc_scsi.c **** #include "usbd_msc_scsi.h"
ARM GAS  C:\Users\gx\AppData\Local\Temp\ccExyhW8.s 			page 2


  31:Middlewares/ST/STM32_USB_Device_Library/Class/MSC/Src/usbd_msc_scsi.c **** #include "usbd_msc.h"
  32:Middlewares/ST/STM32_USB_Device_Library/Class/MSC/Src/usbd_msc_scsi.c **** #include "usbd_msc_data.h"
  33:Middlewares/ST/STM32_USB_Device_Library/Class/MSC/Src/usbd_msc_scsi.c **** 
  34:Middlewares/ST/STM32_USB_Device_Library/Class/MSC/Src/usbd_msc_scsi.c **** 
  35:Middlewares/ST/STM32_USB_Device_Library/Class/MSC/Src/usbd_msc_scsi.c **** 
  36:Middlewares/ST/STM32_USB_Device_Library/Class/MSC/Src/usbd_msc_scsi.c **** /** @addtogroup STM32_USB_DEVICE_LIBRARY
  37:Middlewares/ST/STM32_USB_Device_Library/Class/MSC/Src/usbd_msc_scsi.c ****   * @{
  38:Middlewares/ST/STM32_USB_Device_Library/Class/MSC/Src/usbd_msc_scsi.c ****   */
  39:Middlewares/ST/STM32_USB_Device_Library/Class/MSC/Src/usbd_msc_scsi.c **** 
  40:Middlewares/ST/STM32_USB_Device_Library/Class/MSC/Src/usbd_msc_scsi.c **** 
  41:Middlewares/ST/STM32_USB_Device_Library/Class/MSC/Src/usbd_msc_scsi.c **** /** @defgroup MSC_SCSI 
  42:Middlewares/ST/STM32_USB_Device_Library/Class/MSC/Src/usbd_msc_scsi.c ****   * @brief Mass storage SCSI layer module
  43:Middlewares/ST/STM32_USB_Device_Library/Class/MSC/Src/usbd_msc_scsi.c ****   * @{
  44:Middlewares/ST/STM32_USB_Device_Library/Class/MSC/Src/usbd_msc_scsi.c ****   */ 
  45:Middlewares/ST/STM32_USB_Device_Library/Class/MSC/Src/usbd_msc_scsi.c **** 
  46:Middlewares/ST/STM32_USB_Device_Library/Class/MSC/Src/usbd_msc_scsi.c **** /** @defgroup MSC_SCSI_Private_TypesDefinitions
  47:Middlewares/ST/STM32_USB_Device_Library/Class/MSC/Src/usbd_msc_scsi.c ****   * @{
  48:Middlewares/ST/STM32_USB_Device_Library/Class/MSC/Src/usbd_msc_scsi.c ****   */ 
  49:Middlewares/ST/STM32_USB_Device_Library/Class/MSC/Src/usbd_msc_scsi.c **** /**
  50:Middlewares/ST/STM32_USB_Device_Library/Class/MSC/Src/usbd_msc_scsi.c ****   * @}
  51:Middlewares/ST/STM32_USB_Device_Library/Class/MSC/Src/usbd_msc_scsi.c ****   */ 
  52:Middlewares/ST/STM32_USB_Device_Library/Class/MSC/Src/usbd_msc_scsi.c **** 
  53:Middlewares/ST/STM32_USB_Device_Library/Class/MSC/Src/usbd_msc_scsi.c **** 
  54:Middlewares/ST/STM32_USB_Device_Library/Class/MSC/Src/usbd_msc_scsi.c **** /** @defgroup MSC_SCSI_Private_Defines
  55:Middlewares/ST/STM32_USB_Device_Library/Class/MSC/Src/usbd_msc_scsi.c ****   * @{
  56:Middlewares/ST/STM32_USB_Device_Library/Class/MSC/Src/usbd_msc_scsi.c ****   */ 
  57:Middlewares/ST/STM32_USB_Device_Library/Class/MSC/Src/usbd_msc_scsi.c **** 
  58:Middlewares/ST/STM32_USB_Device_Library/Class/MSC/Src/usbd_msc_scsi.c **** /**
  59:Middlewares/ST/STM32_USB_Device_Library/Class/MSC/Src/usbd_msc_scsi.c ****   * @}
  60:Middlewares/ST/STM32_USB_Device_Library/Class/MSC/Src/usbd_msc_scsi.c ****   */ 
  61:Middlewares/ST/STM32_USB_Device_Library/Class/MSC/Src/usbd_msc_scsi.c **** 
  62:Middlewares/ST/STM32_USB_Device_Library/Class/MSC/Src/usbd_msc_scsi.c **** 
  63:Middlewares/ST/STM32_USB_Device_Library/Class/MSC/Src/usbd_msc_scsi.c **** /** @defgroup MSC_SCSI_Private_Macros
  64:Middlewares/ST/STM32_USB_Device_Library/Class/MSC/Src/usbd_msc_scsi.c ****   * @{
  65:Middlewares/ST/STM32_USB_Device_Library/Class/MSC/Src/usbd_msc_scsi.c ****   */ 
  66:Middlewares/ST/STM32_USB_Device_Library/Class/MSC/Src/usbd_msc_scsi.c **** /**
  67:Middlewares/ST/STM32_USB_Device_Library/Class/MSC/Src/usbd_msc_scsi.c ****   * @}
  68:Middlewares/ST/STM32_USB_Device_Library/Class/MSC/Src/usbd_msc_scsi.c ****   */ 
  69:Middlewares/ST/STM32_USB_Device_Library/Class/MSC/Src/usbd_msc_scsi.c **** 
  70:Middlewares/ST/STM32_USB_Device_Library/Class/MSC/Src/usbd_msc_scsi.c **** 
  71:Middlewares/ST/STM32_USB_Device_Library/Class/MSC/Src/usbd_msc_scsi.c **** /** @defgroup MSC_SCSI_Private_Variables
  72:Middlewares/ST/STM32_USB_Device_Library/Class/MSC/Src/usbd_msc_scsi.c ****   * @{
  73:Middlewares/ST/STM32_USB_Device_Library/Class/MSC/Src/usbd_msc_scsi.c ****   */ 
  74:Middlewares/ST/STM32_USB_Device_Library/Class/MSC/Src/usbd_msc_scsi.c **** 
  75:Middlewares/ST/STM32_USB_Device_Library/Class/MSC/Src/usbd_msc_scsi.c **** /**
  76:Middlewares/ST/STM32_USB_Device_Library/Class/MSC/Src/usbd_msc_scsi.c ****   * @}
  77:Middlewares/ST/STM32_USB_Device_Library/Class/MSC/Src/usbd_msc_scsi.c ****   */ 
  78:Middlewares/ST/STM32_USB_Device_Library/Class/MSC/Src/usbd_msc_scsi.c **** 
  79:Middlewares/ST/STM32_USB_Device_Library/Class/MSC/Src/usbd_msc_scsi.c **** 
  80:Middlewares/ST/STM32_USB_Device_Library/Class/MSC/Src/usbd_msc_scsi.c **** /** @defgroup MSC_SCSI_Private_FunctionPrototypes
  81:Middlewares/ST/STM32_USB_Device_Library/Class/MSC/Src/usbd_msc_scsi.c ****   * @{
  82:Middlewares/ST/STM32_USB_Device_Library/Class/MSC/Src/usbd_msc_scsi.c ****   */ 
  83:Middlewares/ST/STM32_USB_Device_Library/Class/MSC/Src/usbd_msc_scsi.c **** static int8_t SCSI_TestUnitReady(USBD_HandleTypeDef  *pdev, uint8_t lun, uint8_t *params);
  84:Middlewares/ST/STM32_USB_Device_Library/Class/MSC/Src/usbd_msc_scsi.c **** static int8_t SCSI_Inquiry(USBD_HandleTypeDef  *pdev, uint8_t lun, uint8_t *params);
  85:Middlewares/ST/STM32_USB_Device_Library/Class/MSC/Src/usbd_msc_scsi.c **** static int8_t SCSI_ReadFormatCapacity(USBD_HandleTypeDef  *pdev, uint8_t lun, uint8_t *params);
  86:Middlewares/ST/STM32_USB_Device_Library/Class/MSC/Src/usbd_msc_scsi.c **** static int8_t SCSI_ReadCapacity10(USBD_HandleTypeDef  *pdev, uint8_t lun, uint8_t *params);
  87:Middlewares/ST/STM32_USB_Device_Library/Class/MSC/Src/usbd_msc_scsi.c **** static int8_t SCSI_RequestSense (USBD_HandleTypeDef  *pdev, uint8_t lun, uint8_t *params);
ARM GAS  C:\Users\gx\AppData\Local\Temp\ccExyhW8.s 			page 3


  88:Middlewares/ST/STM32_USB_Device_Library/Class/MSC/Src/usbd_msc_scsi.c **** static int8_t SCSI_StartStopUnit(USBD_HandleTypeDef  *pdev, uint8_t lun, uint8_t *params);
  89:Middlewares/ST/STM32_USB_Device_Library/Class/MSC/Src/usbd_msc_scsi.c **** static int8_t SCSI_ModeSense6 (USBD_HandleTypeDef  *pdev, uint8_t lun, uint8_t *params);
  90:Middlewares/ST/STM32_USB_Device_Library/Class/MSC/Src/usbd_msc_scsi.c **** static int8_t SCSI_ModeSense10 (USBD_HandleTypeDef  *pdev, uint8_t lun, uint8_t *params);
  91:Middlewares/ST/STM32_USB_Device_Library/Class/MSC/Src/usbd_msc_scsi.c **** static int8_t SCSI_Write10(USBD_HandleTypeDef  *pdev, uint8_t lun , uint8_t *params);
  92:Middlewares/ST/STM32_USB_Device_Library/Class/MSC/Src/usbd_msc_scsi.c **** static int8_t SCSI_Read10(USBD_HandleTypeDef  *pdev, uint8_t lun , uint8_t *params);
  93:Middlewares/ST/STM32_USB_Device_Library/Class/MSC/Src/usbd_msc_scsi.c **** static int8_t SCSI_Verify10(USBD_HandleTypeDef  *pdev, uint8_t lun, uint8_t *params);
  94:Middlewares/ST/STM32_USB_Device_Library/Class/MSC/Src/usbd_msc_scsi.c **** static int8_t SCSI_CheckAddressRange (USBD_HandleTypeDef  *pdev, 
  95:Middlewares/ST/STM32_USB_Device_Library/Class/MSC/Src/usbd_msc_scsi.c ****                                       uint8_t lun , 
  96:Middlewares/ST/STM32_USB_Device_Library/Class/MSC/Src/usbd_msc_scsi.c ****                                       uint32_t blk_offset , 
  97:Middlewares/ST/STM32_USB_Device_Library/Class/MSC/Src/usbd_msc_scsi.c ****                                       uint16_t blk_nbr);
  98:Middlewares/ST/STM32_USB_Device_Library/Class/MSC/Src/usbd_msc_scsi.c **** static int8_t SCSI_ProcessRead (USBD_HandleTypeDef  *pdev,
  99:Middlewares/ST/STM32_USB_Device_Library/Class/MSC/Src/usbd_msc_scsi.c ****                                 uint8_t lun);
 100:Middlewares/ST/STM32_USB_Device_Library/Class/MSC/Src/usbd_msc_scsi.c **** 
 101:Middlewares/ST/STM32_USB_Device_Library/Class/MSC/Src/usbd_msc_scsi.c **** static int8_t SCSI_ProcessWrite (USBD_HandleTypeDef  *pdev,
 102:Middlewares/ST/STM32_USB_Device_Library/Class/MSC/Src/usbd_msc_scsi.c ****                                  uint8_t lun);
 103:Middlewares/ST/STM32_USB_Device_Library/Class/MSC/Src/usbd_msc_scsi.c **** /**
 104:Middlewares/ST/STM32_USB_Device_Library/Class/MSC/Src/usbd_msc_scsi.c ****   * @}
 105:Middlewares/ST/STM32_USB_Device_Library/Class/MSC/Src/usbd_msc_scsi.c ****   */ 
 106:Middlewares/ST/STM32_USB_Device_Library/Class/MSC/Src/usbd_msc_scsi.c **** 
 107:Middlewares/ST/STM32_USB_Device_Library/Class/MSC/Src/usbd_msc_scsi.c **** 
 108:Middlewares/ST/STM32_USB_Device_Library/Class/MSC/Src/usbd_msc_scsi.c **** /** @defgroup MSC_SCSI_Private_Functions
 109:Middlewares/ST/STM32_USB_Device_Library/Class/MSC/Src/usbd_msc_scsi.c ****   * @{
 110:Middlewares/ST/STM32_USB_Device_Library/Class/MSC/Src/usbd_msc_scsi.c ****   */ 
 111:Middlewares/ST/STM32_USB_Device_Library/Class/MSC/Src/usbd_msc_scsi.c **** 
 112:Middlewares/ST/STM32_USB_Device_Library/Class/MSC/Src/usbd_msc_scsi.c **** 
 113:Middlewares/ST/STM32_USB_Device_Library/Class/MSC/Src/usbd_msc_scsi.c **** /**
 114:Middlewares/ST/STM32_USB_Device_Library/Class/MSC/Src/usbd_msc_scsi.c **** * @brief  SCSI_ProcessCmd
 115:Middlewares/ST/STM32_USB_Device_Library/Class/MSC/Src/usbd_msc_scsi.c **** *         Process SCSI commands
 116:Middlewares/ST/STM32_USB_Device_Library/Class/MSC/Src/usbd_msc_scsi.c **** * @param  pdev: device instance
 117:Middlewares/ST/STM32_USB_Device_Library/Class/MSC/Src/usbd_msc_scsi.c **** * @param  lun: Logical unit number
 118:Middlewares/ST/STM32_USB_Device_Library/Class/MSC/Src/usbd_msc_scsi.c **** * @param  params: Command parameters
 119:Middlewares/ST/STM32_USB_Device_Library/Class/MSC/Src/usbd_msc_scsi.c **** * @retval status
 120:Middlewares/ST/STM32_USB_Device_Library/Class/MSC/Src/usbd_msc_scsi.c **** */
 121:Middlewares/ST/STM32_USB_Device_Library/Class/MSC/Src/usbd_msc_scsi.c **** int8_t SCSI_ProcessCmd(USBD_HandleTypeDef  *pdev,
 122:Middlewares/ST/STM32_USB_Device_Library/Class/MSC/Src/usbd_msc_scsi.c ****                            uint8_t lun, 
 123:Middlewares/ST/STM32_USB_Device_Library/Class/MSC/Src/usbd_msc_scsi.c ****                            uint8_t *params)
 124:Middlewares/ST/STM32_USB_Device_Library/Class/MSC/Src/usbd_msc_scsi.c **** {
 125:Middlewares/ST/STM32_USB_Device_Library/Class/MSC/Src/usbd_msc_scsi.c ****   
 126:Middlewares/ST/STM32_USB_Device_Library/Class/MSC/Src/usbd_msc_scsi.c ****   switch (params[0])
 127:Middlewares/ST/STM32_USB_Device_Library/Class/MSC/Src/usbd_msc_scsi.c ****   {
 128:Middlewares/ST/STM32_USB_Device_Library/Class/MSC/Src/usbd_msc_scsi.c ****   case SCSI_TEST_UNIT_READY:
 129:Middlewares/ST/STM32_USB_Device_Library/Class/MSC/Src/usbd_msc_scsi.c ****     return SCSI_TestUnitReady(pdev, lun, params);
 130:Middlewares/ST/STM32_USB_Device_Library/Class/MSC/Src/usbd_msc_scsi.c ****     
 131:Middlewares/ST/STM32_USB_Device_Library/Class/MSC/Src/usbd_msc_scsi.c ****   case SCSI_REQUEST_SENSE:
 132:Middlewares/ST/STM32_USB_Device_Library/Class/MSC/Src/usbd_msc_scsi.c ****     return SCSI_RequestSense (pdev, lun, params);
 133:Middlewares/ST/STM32_USB_Device_Library/Class/MSC/Src/usbd_msc_scsi.c ****   case SCSI_INQUIRY:
 134:Middlewares/ST/STM32_USB_Device_Library/Class/MSC/Src/usbd_msc_scsi.c ****     return SCSI_Inquiry(pdev, lun, params);
 135:Middlewares/ST/STM32_USB_Device_Library/Class/MSC/Src/usbd_msc_scsi.c ****     
 136:Middlewares/ST/STM32_USB_Device_Library/Class/MSC/Src/usbd_msc_scsi.c ****   case SCSI_START_STOP_UNIT:
 137:Middlewares/ST/STM32_USB_Device_Library/Class/MSC/Src/usbd_msc_scsi.c ****     return SCSI_StartStopUnit(pdev, lun, params);
 138:Middlewares/ST/STM32_USB_Device_Library/Class/MSC/Src/usbd_msc_scsi.c ****     
 139:Middlewares/ST/STM32_USB_Device_Library/Class/MSC/Src/usbd_msc_scsi.c ****   case SCSI_ALLOW_MEDIUM_REMOVAL:
 140:Middlewares/ST/STM32_USB_Device_Library/Class/MSC/Src/usbd_msc_scsi.c ****     return SCSI_StartStopUnit(pdev, lun, params);
 141:Middlewares/ST/STM32_USB_Device_Library/Class/MSC/Src/usbd_msc_scsi.c ****     
 142:Middlewares/ST/STM32_USB_Device_Library/Class/MSC/Src/usbd_msc_scsi.c ****   case SCSI_MODE_SENSE6:
 143:Middlewares/ST/STM32_USB_Device_Library/Class/MSC/Src/usbd_msc_scsi.c ****     return SCSI_ModeSense6 (pdev, lun, params);
 144:Middlewares/ST/STM32_USB_Device_Library/Class/MSC/Src/usbd_msc_scsi.c ****     
ARM GAS  C:\Users\gx\AppData\Local\Temp\ccExyhW8.s 			page 4


 145:Middlewares/ST/STM32_USB_Device_Library/Class/MSC/Src/usbd_msc_scsi.c ****   case SCSI_MODE_SENSE10:
 146:Middlewares/ST/STM32_USB_Device_Library/Class/MSC/Src/usbd_msc_scsi.c ****     return SCSI_ModeSense10 (pdev, lun, params);
 147:Middlewares/ST/STM32_USB_Device_Library/Class/MSC/Src/usbd_msc_scsi.c ****     
 148:Middlewares/ST/STM32_USB_Device_Library/Class/MSC/Src/usbd_msc_scsi.c ****   case SCSI_READ_FORMAT_CAPACITIES:
 149:Middlewares/ST/STM32_USB_Device_Library/Class/MSC/Src/usbd_msc_scsi.c ****     return SCSI_ReadFormatCapacity(pdev, lun, params);
 150:Middlewares/ST/STM32_USB_Device_Library/Class/MSC/Src/usbd_msc_scsi.c ****     
 151:Middlewares/ST/STM32_USB_Device_Library/Class/MSC/Src/usbd_msc_scsi.c ****   case SCSI_READ_CAPACITY10:
 152:Middlewares/ST/STM32_USB_Device_Library/Class/MSC/Src/usbd_msc_scsi.c ****     return SCSI_ReadCapacity10(pdev, lun, params);
 153:Middlewares/ST/STM32_USB_Device_Library/Class/MSC/Src/usbd_msc_scsi.c ****     
 154:Middlewares/ST/STM32_USB_Device_Library/Class/MSC/Src/usbd_msc_scsi.c ****   case SCSI_READ10:
 155:Middlewares/ST/STM32_USB_Device_Library/Class/MSC/Src/usbd_msc_scsi.c ****     return SCSI_Read10(pdev, lun, params); 
 156:Middlewares/ST/STM32_USB_Device_Library/Class/MSC/Src/usbd_msc_scsi.c ****     
 157:Middlewares/ST/STM32_USB_Device_Library/Class/MSC/Src/usbd_msc_scsi.c ****   case SCSI_WRITE10:
 158:Middlewares/ST/STM32_USB_Device_Library/Class/MSC/Src/usbd_msc_scsi.c ****     return SCSI_Write10(pdev, lun, params);
 159:Middlewares/ST/STM32_USB_Device_Library/Class/MSC/Src/usbd_msc_scsi.c ****     
 160:Middlewares/ST/STM32_USB_Device_Library/Class/MSC/Src/usbd_msc_scsi.c ****   case SCSI_VERIFY10:
 161:Middlewares/ST/STM32_USB_Device_Library/Class/MSC/Src/usbd_msc_scsi.c ****     return SCSI_Verify10(pdev, lun, params);
 162:Middlewares/ST/STM32_USB_Device_Library/Class/MSC/Src/usbd_msc_scsi.c ****     
 163:Middlewares/ST/STM32_USB_Device_Library/Class/MSC/Src/usbd_msc_scsi.c ****   default:
 164:Middlewares/ST/STM32_USB_Device_Library/Class/MSC/Src/usbd_msc_scsi.c ****     SCSI_SenseCode(pdev, 
 165:Middlewares/ST/STM32_USB_Device_Library/Class/MSC/Src/usbd_msc_scsi.c ****                    lun,
 166:Middlewares/ST/STM32_USB_Device_Library/Class/MSC/Src/usbd_msc_scsi.c ****                    ILLEGAL_REQUEST, 
 167:Middlewares/ST/STM32_USB_Device_Library/Class/MSC/Src/usbd_msc_scsi.c ****                    INVALID_CDB);    
 168:Middlewares/ST/STM32_USB_Device_Library/Class/MSC/Src/usbd_msc_scsi.c ****     return -1;
 169:Middlewares/ST/STM32_USB_Device_Library/Class/MSC/Src/usbd_msc_scsi.c ****   }
 170:Middlewares/ST/STM32_USB_Device_Library/Class/MSC/Src/usbd_msc_scsi.c **** }
 171:Middlewares/ST/STM32_USB_Device_Library/Class/MSC/Src/usbd_msc_scsi.c **** 
 172:Middlewares/ST/STM32_USB_Device_Library/Class/MSC/Src/usbd_msc_scsi.c **** 
 173:Middlewares/ST/STM32_USB_Device_Library/Class/MSC/Src/usbd_msc_scsi.c **** /**
 174:Middlewares/ST/STM32_USB_Device_Library/Class/MSC/Src/usbd_msc_scsi.c **** * @brief  SCSI_TestUnitReady
 175:Middlewares/ST/STM32_USB_Device_Library/Class/MSC/Src/usbd_msc_scsi.c **** *         Process SCSI Test Unit Ready Command
 176:Middlewares/ST/STM32_USB_Device_Library/Class/MSC/Src/usbd_msc_scsi.c **** * @param  lun: Logical unit number
 177:Middlewares/ST/STM32_USB_Device_Library/Class/MSC/Src/usbd_msc_scsi.c **** * @param  params: Command parameters
 178:Middlewares/ST/STM32_USB_Device_Library/Class/MSC/Src/usbd_msc_scsi.c **** * @retval status
 179:Middlewares/ST/STM32_USB_Device_Library/Class/MSC/Src/usbd_msc_scsi.c **** */
 180:Middlewares/ST/STM32_USB_Device_Library/Class/MSC/Src/usbd_msc_scsi.c **** static int8_t SCSI_TestUnitReady(USBD_HandleTypeDef  *pdev, uint8_t lun, uint8_t *params)
 181:Middlewares/ST/STM32_USB_Device_Library/Class/MSC/Src/usbd_msc_scsi.c **** {
 182:Middlewares/ST/STM32_USB_Device_Library/Class/MSC/Src/usbd_msc_scsi.c ****   USBD_MSC_BOT_HandleTypeDef  *hmsc = (USBD_MSC_BOT_HandleTypeDef*)pdev->pClassData;  
 183:Middlewares/ST/STM32_USB_Device_Library/Class/MSC/Src/usbd_msc_scsi.c ****     
 184:Middlewares/ST/STM32_USB_Device_Library/Class/MSC/Src/usbd_msc_scsi.c ****   /* case 9 : Hi > D0 */
 185:Middlewares/ST/STM32_USB_Device_Library/Class/MSC/Src/usbd_msc_scsi.c ****   if (hmsc->cbw.dDataLength != 0)
 186:Middlewares/ST/STM32_USB_Device_Library/Class/MSC/Src/usbd_msc_scsi.c ****   {
 187:Middlewares/ST/STM32_USB_Device_Library/Class/MSC/Src/usbd_msc_scsi.c ****     SCSI_SenseCode(pdev,
 188:Middlewares/ST/STM32_USB_Device_Library/Class/MSC/Src/usbd_msc_scsi.c ****                    hmsc->cbw.bLUN, 
 189:Middlewares/ST/STM32_USB_Device_Library/Class/MSC/Src/usbd_msc_scsi.c ****                    ILLEGAL_REQUEST, 
 190:Middlewares/ST/STM32_USB_Device_Library/Class/MSC/Src/usbd_msc_scsi.c ****                    INVALID_CDB);
 191:Middlewares/ST/STM32_USB_Device_Library/Class/MSC/Src/usbd_msc_scsi.c ****     return -1;
 192:Middlewares/ST/STM32_USB_Device_Library/Class/MSC/Src/usbd_msc_scsi.c ****   }  
 193:Middlewares/ST/STM32_USB_Device_Library/Class/MSC/Src/usbd_msc_scsi.c ****   
 194:Middlewares/ST/STM32_USB_Device_Library/Class/MSC/Src/usbd_msc_scsi.c ****   if(((USBD_StorageTypeDef *)pdev->pUserData)->IsReady(lun) !=0 )
 195:Middlewares/ST/STM32_USB_Device_Library/Class/MSC/Src/usbd_msc_scsi.c ****   {
 196:Middlewares/ST/STM32_USB_Device_Library/Class/MSC/Src/usbd_msc_scsi.c ****     SCSI_SenseCode(pdev,
 197:Middlewares/ST/STM32_USB_Device_Library/Class/MSC/Src/usbd_msc_scsi.c ****                    lun,
 198:Middlewares/ST/STM32_USB_Device_Library/Class/MSC/Src/usbd_msc_scsi.c ****                    NOT_READY, 
 199:Middlewares/ST/STM32_USB_Device_Library/Class/MSC/Src/usbd_msc_scsi.c ****                    MEDIUM_NOT_PRESENT);
 200:Middlewares/ST/STM32_USB_Device_Library/Class/MSC/Src/usbd_msc_scsi.c ****     
 201:Middlewares/ST/STM32_USB_Device_Library/Class/MSC/Src/usbd_msc_scsi.c ****     hmsc->bot_state = USBD_BOT_NO_DATA;
ARM GAS  C:\Users\gx\AppData\Local\Temp\ccExyhW8.s 			page 5


 202:Middlewares/ST/STM32_USB_Device_Library/Class/MSC/Src/usbd_msc_scsi.c ****     return -1;
 203:Middlewares/ST/STM32_USB_Device_Library/Class/MSC/Src/usbd_msc_scsi.c ****   } 
 204:Middlewares/ST/STM32_USB_Device_Library/Class/MSC/Src/usbd_msc_scsi.c ****   hmsc->bot_data_length = 0;
 205:Middlewares/ST/STM32_USB_Device_Library/Class/MSC/Src/usbd_msc_scsi.c ****   return 0;
 206:Middlewares/ST/STM32_USB_Device_Library/Class/MSC/Src/usbd_msc_scsi.c **** }
 207:Middlewares/ST/STM32_USB_Device_Library/Class/MSC/Src/usbd_msc_scsi.c **** 
 208:Middlewares/ST/STM32_USB_Device_Library/Class/MSC/Src/usbd_msc_scsi.c **** /**
 209:Middlewares/ST/STM32_USB_Device_Library/Class/MSC/Src/usbd_msc_scsi.c **** * @brief  SCSI_Inquiry
 210:Middlewares/ST/STM32_USB_Device_Library/Class/MSC/Src/usbd_msc_scsi.c **** *         Process Inquiry command
 211:Middlewares/ST/STM32_USB_Device_Library/Class/MSC/Src/usbd_msc_scsi.c **** * @param  lun: Logical unit number
 212:Middlewares/ST/STM32_USB_Device_Library/Class/MSC/Src/usbd_msc_scsi.c **** * @param  params: Command parameters
 213:Middlewares/ST/STM32_USB_Device_Library/Class/MSC/Src/usbd_msc_scsi.c **** * @retval status
 214:Middlewares/ST/STM32_USB_Device_Library/Class/MSC/Src/usbd_msc_scsi.c **** */
 215:Middlewares/ST/STM32_USB_Device_Library/Class/MSC/Src/usbd_msc_scsi.c **** static int8_t  SCSI_Inquiry(USBD_HandleTypeDef  *pdev, uint8_t lun, uint8_t *params)
 216:Middlewares/ST/STM32_USB_Device_Library/Class/MSC/Src/usbd_msc_scsi.c **** {
  29              		.loc 1 216 1 view -0
  30              		.cfi_startproc
  31              		@ args = 0, pretend = 0, frame = 0
  32              		@ frame_needed = 0, uses_anonymous_args = 0
  33              		@ link register save eliminated.
  34              		.loc 1 216 1 is_stmt 0 view .LVU1
  35 0000 10B4     		push	{r4}
  36              	.LCFI0:
  37              		.cfi_def_cfa_offset 4
  38              		.cfi_offset 4, -4
 217:Middlewares/ST/STM32_USB_Device_Library/Class/MSC/Src/usbd_msc_scsi.c ****   uint8_t* pPage;
  39              		.loc 1 217 3 is_stmt 1 view .LVU2
 218:Middlewares/ST/STM32_USB_Device_Library/Class/MSC/Src/usbd_msc_scsi.c ****   uint16_t len;
  40              		.loc 1 218 3 view .LVU3
 219:Middlewares/ST/STM32_USB_Device_Library/Class/MSC/Src/usbd_msc_scsi.c ****   USBD_MSC_BOT_HandleTypeDef  *hmsc = (USBD_MSC_BOT_HandleTypeDef*)pdev->pClassData; 
  41              		.loc 1 219 3 view .LVU4
  42              		.loc 1 219 32 is_stmt 0 view .LVU5
  43 0002 D0F81842 		ldr	r4, [r0, #536]
  44              	.LVL1:
 220:Middlewares/ST/STM32_USB_Device_Library/Class/MSC/Src/usbd_msc_scsi.c ****   
 221:Middlewares/ST/STM32_USB_Device_Library/Class/MSC/Src/usbd_msc_scsi.c ****   if (params[1] & 0x01)/*Evpd is set*/
  45              		.loc 1 221 3 is_stmt 1 view .LVU6
  46              		.loc 1 221 13 is_stmt 0 view .LVU7
  47 0006 5378     		ldrb	r3, [r2, #1]	@ zero_extendqisi2
  48              		.loc 1 221 6 view .LVU8
  49 0008 13F0010F 		tst	r3, #1
  50 000c 0DD1     		bne	.L5
 222:Middlewares/ST/STM32_USB_Device_Library/Class/MSC/Src/usbd_msc_scsi.c ****   {
 223:Middlewares/ST/STM32_USB_Device_Library/Class/MSC/Src/usbd_msc_scsi.c ****     pPage = (uint8_t *)MSC_Page00_Inquiry_Data;
 224:Middlewares/ST/STM32_USB_Device_Library/Class/MSC/Src/usbd_msc_scsi.c ****     len = LENGTH_INQUIRY_PAGE00;
 225:Middlewares/ST/STM32_USB_Device_Library/Class/MSC/Src/usbd_msc_scsi.c ****   }
 226:Middlewares/ST/STM32_USB_Device_Library/Class/MSC/Src/usbd_msc_scsi.c ****   else
 227:Middlewares/ST/STM32_USB_Device_Library/Class/MSC/Src/usbd_msc_scsi.c ****   {
 228:Middlewares/ST/STM32_USB_Device_Library/Class/MSC/Src/usbd_msc_scsi.c ****     
 229:Middlewares/ST/STM32_USB_Device_Library/Class/MSC/Src/usbd_msc_scsi.c ****     pPage = (uint8_t *)&((USBD_StorageTypeDef *)pdev->pUserData)->pInquiry[lun * STANDARD_INQUIRY_D
  51              		.loc 1 229 5 is_stmt 1 view .LVU9
  52              		.loc 1 229 53 is_stmt 0 view .LVU10
  53 000e D0F81C32 		ldr	r3, [r0, #540]
  54              		.loc 1 229 65 view .LVU11
  55 0012 D869     		ldr	r0, [r3, #28]
  56              	.LVL2:
  57              		.loc 1 229 80 view .LVU12
ARM GAS  C:\Users\gx\AppData\Local\Temp\ccExyhW8.s 			page 6


  58 0014 01EBC101 		add	r1, r1, r1, lsl #3
  59              	.LVL3:
  60              		.loc 1 229 11 view .LVU13
  61 0018 00EB8100 		add	r0, r0, r1, lsl #2
  62              	.LVL4:
 230:Middlewares/ST/STM32_USB_Device_Library/Class/MSC/Src/usbd_msc_scsi.c ****     len = pPage[4] + 5;
  63              		.loc 1 230 5 is_stmt 1 view .LVU14
  64              		.loc 1 230 16 is_stmt 0 view .LVU15
  65 001c 0179     		ldrb	r1, [r0, #4]	@ zero_extendqisi2
  66              		.loc 1 230 9 view .LVU16
  67 001e 0531     		adds	r1, r1, #5
  68              	.LVL5:
 231:Middlewares/ST/STM32_USB_Device_Library/Class/MSC/Src/usbd_msc_scsi.c ****     
 232:Middlewares/ST/STM32_USB_Device_Library/Class/MSC/Src/usbd_msc_scsi.c ****     if (params[4] <= len)
  69              		.loc 1 232 5 is_stmt 1 view .LVU17
  70              		.loc 1 232 15 is_stmt 0 view .LVU18
  71 0020 1379     		ldrb	r3, [r2, #4]	@ zero_extendqisi2
  72              		.loc 1 232 8 view .LVU19
  73 0022 8B42     		cmp	r3, r1
  74 0024 03D9     		bls	.L2
 230:Middlewares/ST/STM32_USB_Device_Library/Class/MSC/Src/usbd_msc_scsi.c ****     len = pPage[4] + 5;
  75              		.loc 1 230 9 view .LVU20
  76 0026 0B46     		mov	r3, r1
  77 0028 01E0     		b	.L2
  78              	.LVL6:
  79              	.L5:
 224:Middlewares/ST/STM32_USB_Device_Library/Class/MSC/Src/usbd_msc_scsi.c ****   }
  80              		.loc 1 224 9 view .LVU21
  81 002a 0723     		movs	r3, #7
 223:Middlewares/ST/STM32_USB_Device_Library/Class/MSC/Src/usbd_msc_scsi.c ****     len = LENGTH_INQUIRY_PAGE00;
  82              		.loc 1 223 11 view .LVU22
  83 002c 0648     		ldr	r0, .L8
  84              	.LVL7:
  85              	.L2:
 233:Middlewares/ST/STM32_USB_Device_Library/Class/MSC/Src/usbd_msc_scsi.c ****     {
 234:Middlewares/ST/STM32_USB_Device_Library/Class/MSC/Src/usbd_msc_scsi.c ****       len = params[4];
 235:Middlewares/ST/STM32_USB_Device_Library/Class/MSC/Src/usbd_msc_scsi.c ****     }
 236:Middlewares/ST/STM32_USB_Device_Library/Class/MSC/Src/usbd_msc_scsi.c ****   }
 237:Middlewares/ST/STM32_USB_Device_Library/Class/MSC/Src/usbd_msc_scsi.c ****   hmsc->bot_data_length = len;
  86              		.loc 1 237 3 is_stmt 1 view .LVU23
  87              		.loc 1 237 25 is_stmt 0 view .LVU24
  88 002e 6381     		strh	r3, [r4, #10]	@ movhi
 238:Middlewares/ST/STM32_USB_Device_Library/Class/MSC/Src/usbd_msc_scsi.c ****   
 239:Middlewares/ST/STM32_USB_Device_Library/Class/MSC/Src/usbd_msc_scsi.c ****   while (len) 
  89              		.loc 1 239 3 is_stmt 1 view .LVU25
  90              	.LVL8:
  91              	.L3:
  92              		.loc 1 239 9 view .LVU26
  93 0030 2BB1     		cbz	r3, .L7
 240:Middlewares/ST/STM32_USB_Device_Library/Class/MSC/Src/usbd_msc_scsi.c ****   {
 241:Middlewares/ST/STM32_USB_Device_Library/Class/MSC/Src/usbd_msc_scsi.c ****     len--;
  94              		.loc 1 241 5 view .LVU27
  95              		.loc 1 241 8 is_stmt 0 view .LVU28
  96 0032 013B     		subs	r3, r3, #1
  97              	.LVL9:
  98              		.loc 1 241 8 view .LVU29
  99 0034 9BB2     		uxth	r3, r3
ARM GAS  C:\Users\gx\AppData\Local\Temp\ccExyhW8.s 			page 7


 100              	.LVL10:
 242:Middlewares/ST/STM32_USB_Device_Library/Class/MSC/Src/usbd_msc_scsi.c ****     hmsc->bot_data[len] = pPage[len];
 101              		.loc 1 242 5 is_stmt 1 view .LVU30
 102              		.loc 1 242 32 is_stmt 0 view .LVU31
 103 0036 C15C     		ldrb	r1, [r0, r3]	@ zero_extendqisi2
 104              		.loc 1 242 25 view .LVU32
 105 0038 E218     		adds	r2, r4, r3
 106 003a 1173     		strb	r1, [r2, #12]
 107 003c F8E7     		b	.L3
 108              	.L7:
 243:Middlewares/ST/STM32_USB_Device_Library/Class/MSC/Src/usbd_msc_scsi.c ****   }
 244:Middlewares/ST/STM32_USB_Device_Library/Class/MSC/Src/usbd_msc_scsi.c ****   return 0;
 109              		.loc 1 244 3 is_stmt 1 view .LVU33
 245:Middlewares/ST/STM32_USB_Device_Library/Class/MSC/Src/usbd_msc_scsi.c **** }
 110              		.loc 1 245 1 is_stmt 0 view .LVU34
 111 003e 0020     		movs	r0, #0
 112              	.LVL11:
 113              		.loc 1 245 1 view .LVU35
 114 0040 5DF8044B 		ldr	r4, [sp], #4
 115              	.LCFI1:
 116              		.cfi_restore 4
 117              		.cfi_def_cfa_offset 0
 118              	.LVL12:
 119              		.loc 1 245 1 view .LVU36
 120 0044 7047     		bx	lr
 121              	.L9:
 122 0046 00BF     		.align	2
 123              	.L8:
 124 0048 00000000 		.word	MSC_Page00_Inquiry_Data
 125              		.cfi_endproc
 126              	.LFE128:
 128              		.section	.text.SCSI_ModeSense6,"ax",%progbits
 129              		.align	1
 130              		.syntax unified
 131              		.thumb
 132              		.thumb_func
 133              		.fpu fpv4-sp-d16
 135              	SCSI_ModeSense6:
 136              	.LVL13:
 137              	.LFB131:
 246:Middlewares/ST/STM32_USB_Device_Library/Class/MSC/Src/usbd_msc_scsi.c **** 
 247:Middlewares/ST/STM32_USB_Device_Library/Class/MSC/Src/usbd_msc_scsi.c **** /**
 248:Middlewares/ST/STM32_USB_Device_Library/Class/MSC/Src/usbd_msc_scsi.c **** * @brief  SCSI_ReadCapacity10
 249:Middlewares/ST/STM32_USB_Device_Library/Class/MSC/Src/usbd_msc_scsi.c **** *         Process Read Capacity 10 command
 250:Middlewares/ST/STM32_USB_Device_Library/Class/MSC/Src/usbd_msc_scsi.c **** * @param  lun: Logical unit number
 251:Middlewares/ST/STM32_USB_Device_Library/Class/MSC/Src/usbd_msc_scsi.c **** * @param  params: Command parameters
 252:Middlewares/ST/STM32_USB_Device_Library/Class/MSC/Src/usbd_msc_scsi.c **** * @retval status
 253:Middlewares/ST/STM32_USB_Device_Library/Class/MSC/Src/usbd_msc_scsi.c **** */
 254:Middlewares/ST/STM32_USB_Device_Library/Class/MSC/Src/usbd_msc_scsi.c **** static int8_t SCSI_ReadCapacity10(USBD_HandleTypeDef  *pdev, uint8_t lun, uint8_t *params)
 255:Middlewares/ST/STM32_USB_Device_Library/Class/MSC/Src/usbd_msc_scsi.c **** {
 256:Middlewares/ST/STM32_USB_Device_Library/Class/MSC/Src/usbd_msc_scsi.c ****   USBD_MSC_BOT_HandleTypeDef  *hmsc = (USBD_MSC_BOT_HandleTypeDef*)pdev->pClassData; 
 257:Middlewares/ST/STM32_USB_Device_Library/Class/MSC/Src/usbd_msc_scsi.c ****   
 258:Middlewares/ST/STM32_USB_Device_Library/Class/MSC/Src/usbd_msc_scsi.c ****   if(((USBD_StorageTypeDef *)pdev->pUserData)->GetCapacity(lun, &hmsc->scsi_blk_nbr, &hmsc->scsi_bl
 259:Middlewares/ST/STM32_USB_Device_Library/Class/MSC/Src/usbd_msc_scsi.c ****   {
 260:Middlewares/ST/STM32_USB_Device_Library/Class/MSC/Src/usbd_msc_scsi.c ****     SCSI_SenseCode(pdev,
 261:Middlewares/ST/STM32_USB_Device_Library/Class/MSC/Src/usbd_msc_scsi.c ****                    lun,
 262:Middlewares/ST/STM32_USB_Device_Library/Class/MSC/Src/usbd_msc_scsi.c ****                    NOT_READY, 
ARM GAS  C:\Users\gx\AppData\Local\Temp\ccExyhW8.s 			page 8


 263:Middlewares/ST/STM32_USB_Device_Library/Class/MSC/Src/usbd_msc_scsi.c ****                    MEDIUM_NOT_PRESENT);
 264:Middlewares/ST/STM32_USB_Device_Library/Class/MSC/Src/usbd_msc_scsi.c ****     return -1;
 265:Middlewares/ST/STM32_USB_Device_Library/Class/MSC/Src/usbd_msc_scsi.c ****   } 
 266:Middlewares/ST/STM32_USB_Device_Library/Class/MSC/Src/usbd_msc_scsi.c ****   else
 267:Middlewares/ST/STM32_USB_Device_Library/Class/MSC/Src/usbd_msc_scsi.c ****   {
 268:Middlewares/ST/STM32_USB_Device_Library/Class/MSC/Src/usbd_msc_scsi.c ****     
 269:Middlewares/ST/STM32_USB_Device_Library/Class/MSC/Src/usbd_msc_scsi.c ****     hmsc->bot_data[0] = (uint8_t)((hmsc->scsi_blk_nbr - 1) >> 24);
 270:Middlewares/ST/STM32_USB_Device_Library/Class/MSC/Src/usbd_msc_scsi.c ****     hmsc->bot_data[1] = (uint8_t)((hmsc->scsi_blk_nbr - 1) >> 16);
 271:Middlewares/ST/STM32_USB_Device_Library/Class/MSC/Src/usbd_msc_scsi.c ****     hmsc->bot_data[2] = (uint8_t)((hmsc->scsi_blk_nbr - 1) >>  8);
 272:Middlewares/ST/STM32_USB_Device_Library/Class/MSC/Src/usbd_msc_scsi.c ****     hmsc->bot_data[3] = (uint8_t)(hmsc->scsi_blk_nbr - 1);
 273:Middlewares/ST/STM32_USB_Device_Library/Class/MSC/Src/usbd_msc_scsi.c ****     
 274:Middlewares/ST/STM32_USB_Device_Library/Class/MSC/Src/usbd_msc_scsi.c ****     hmsc->bot_data[4] = (uint8_t)(hmsc->scsi_blk_size >>  24);
 275:Middlewares/ST/STM32_USB_Device_Library/Class/MSC/Src/usbd_msc_scsi.c ****     hmsc->bot_data[5] = (uint8_t)(hmsc->scsi_blk_size >>  16);
 276:Middlewares/ST/STM32_USB_Device_Library/Class/MSC/Src/usbd_msc_scsi.c ****     hmsc->bot_data[6] = (uint8_t)(hmsc->scsi_blk_size >>  8);
 277:Middlewares/ST/STM32_USB_Device_Library/Class/MSC/Src/usbd_msc_scsi.c ****     hmsc->bot_data[7] = (uint8_t)(hmsc->scsi_blk_size);
 278:Middlewares/ST/STM32_USB_Device_Library/Class/MSC/Src/usbd_msc_scsi.c ****     
 279:Middlewares/ST/STM32_USB_Device_Library/Class/MSC/Src/usbd_msc_scsi.c ****     hmsc->bot_data_length = 8;
 280:Middlewares/ST/STM32_USB_Device_Library/Class/MSC/Src/usbd_msc_scsi.c ****     return 0;
 281:Middlewares/ST/STM32_USB_Device_Library/Class/MSC/Src/usbd_msc_scsi.c ****   }
 282:Middlewares/ST/STM32_USB_Device_Library/Class/MSC/Src/usbd_msc_scsi.c **** }
 283:Middlewares/ST/STM32_USB_Device_Library/Class/MSC/Src/usbd_msc_scsi.c **** /**
 284:Middlewares/ST/STM32_USB_Device_Library/Class/MSC/Src/usbd_msc_scsi.c **** * @brief  SCSI_ReadFormatCapacity
 285:Middlewares/ST/STM32_USB_Device_Library/Class/MSC/Src/usbd_msc_scsi.c **** *         Process Read Format Capacity command
 286:Middlewares/ST/STM32_USB_Device_Library/Class/MSC/Src/usbd_msc_scsi.c **** * @param  lun: Logical unit number
 287:Middlewares/ST/STM32_USB_Device_Library/Class/MSC/Src/usbd_msc_scsi.c **** * @param  params: Command parameters
 288:Middlewares/ST/STM32_USB_Device_Library/Class/MSC/Src/usbd_msc_scsi.c **** * @retval status
 289:Middlewares/ST/STM32_USB_Device_Library/Class/MSC/Src/usbd_msc_scsi.c **** */
 290:Middlewares/ST/STM32_USB_Device_Library/Class/MSC/Src/usbd_msc_scsi.c **** static int8_t SCSI_ReadFormatCapacity(USBD_HandleTypeDef  *pdev, uint8_t lun, uint8_t *params)
 291:Middlewares/ST/STM32_USB_Device_Library/Class/MSC/Src/usbd_msc_scsi.c **** {
 292:Middlewares/ST/STM32_USB_Device_Library/Class/MSC/Src/usbd_msc_scsi.c ****   USBD_MSC_BOT_HandleTypeDef  *hmsc = (USBD_MSC_BOT_HandleTypeDef*)pdev->pClassData; 
 293:Middlewares/ST/STM32_USB_Device_Library/Class/MSC/Src/usbd_msc_scsi.c ****   
 294:Middlewares/ST/STM32_USB_Device_Library/Class/MSC/Src/usbd_msc_scsi.c ****   uint16_t blk_size;
 295:Middlewares/ST/STM32_USB_Device_Library/Class/MSC/Src/usbd_msc_scsi.c ****   uint32_t blk_nbr;
 296:Middlewares/ST/STM32_USB_Device_Library/Class/MSC/Src/usbd_msc_scsi.c ****   uint16_t i;
 297:Middlewares/ST/STM32_USB_Device_Library/Class/MSC/Src/usbd_msc_scsi.c ****   
 298:Middlewares/ST/STM32_USB_Device_Library/Class/MSC/Src/usbd_msc_scsi.c ****   for(i=0 ; i < 12 ; i++) 
 299:Middlewares/ST/STM32_USB_Device_Library/Class/MSC/Src/usbd_msc_scsi.c ****   {
 300:Middlewares/ST/STM32_USB_Device_Library/Class/MSC/Src/usbd_msc_scsi.c ****     hmsc->bot_data[i] = 0;
 301:Middlewares/ST/STM32_USB_Device_Library/Class/MSC/Src/usbd_msc_scsi.c ****   }
 302:Middlewares/ST/STM32_USB_Device_Library/Class/MSC/Src/usbd_msc_scsi.c ****   
 303:Middlewares/ST/STM32_USB_Device_Library/Class/MSC/Src/usbd_msc_scsi.c ****   if(((USBD_StorageTypeDef *)pdev->pUserData)->GetCapacity(lun, &blk_nbr, &blk_size) != 0)
 304:Middlewares/ST/STM32_USB_Device_Library/Class/MSC/Src/usbd_msc_scsi.c ****   {
 305:Middlewares/ST/STM32_USB_Device_Library/Class/MSC/Src/usbd_msc_scsi.c ****     SCSI_SenseCode(pdev,
 306:Middlewares/ST/STM32_USB_Device_Library/Class/MSC/Src/usbd_msc_scsi.c ****                    lun,
 307:Middlewares/ST/STM32_USB_Device_Library/Class/MSC/Src/usbd_msc_scsi.c ****                    NOT_READY, 
 308:Middlewares/ST/STM32_USB_Device_Library/Class/MSC/Src/usbd_msc_scsi.c ****                    MEDIUM_NOT_PRESENT);
 309:Middlewares/ST/STM32_USB_Device_Library/Class/MSC/Src/usbd_msc_scsi.c ****     return -1;
 310:Middlewares/ST/STM32_USB_Device_Library/Class/MSC/Src/usbd_msc_scsi.c ****   } 
 311:Middlewares/ST/STM32_USB_Device_Library/Class/MSC/Src/usbd_msc_scsi.c ****   else
 312:Middlewares/ST/STM32_USB_Device_Library/Class/MSC/Src/usbd_msc_scsi.c ****   {
 313:Middlewares/ST/STM32_USB_Device_Library/Class/MSC/Src/usbd_msc_scsi.c ****     hmsc->bot_data[3] = 0x08;
 314:Middlewares/ST/STM32_USB_Device_Library/Class/MSC/Src/usbd_msc_scsi.c ****     hmsc->bot_data[4] = (uint8_t)((blk_nbr - 1) >> 24);
 315:Middlewares/ST/STM32_USB_Device_Library/Class/MSC/Src/usbd_msc_scsi.c ****     hmsc->bot_data[5] = (uint8_t)((blk_nbr - 1) >> 16);
 316:Middlewares/ST/STM32_USB_Device_Library/Class/MSC/Src/usbd_msc_scsi.c ****     hmsc->bot_data[6] = (uint8_t)((blk_nbr - 1) >>  8);
 317:Middlewares/ST/STM32_USB_Device_Library/Class/MSC/Src/usbd_msc_scsi.c ****     hmsc->bot_data[7] = (uint8_t)(blk_nbr - 1);
 318:Middlewares/ST/STM32_USB_Device_Library/Class/MSC/Src/usbd_msc_scsi.c ****     
 319:Middlewares/ST/STM32_USB_Device_Library/Class/MSC/Src/usbd_msc_scsi.c ****     hmsc->bot_data[8] = 0x02;
ARM GAS  C:\Users\gx\AppData\Local\Temp\ccExyhW8.s 			page 9


 320:Middlewares/ST/STM32_USB_Device_Library/Class/MSC/Src/usbd_msc_scsi.c ****     hmsc->bot_data[9] = (uint8_t)(blk_size >>  16);
 321:Middlewares/ST/STM32_USB_Device_Library/Class/MSC/Src/usbd_msc_scsi.c ****     hmsc->bot_data[10] = (uint8_t)(blk_size >>  8);
 322:Middlewares/ST/STM32_USB_Device_Library/Class/MSC/Src/usbd_msc_scsi.c ****     hmsc->bot_data[11] = (uint8_t)(blk_size);
 323:Middlewares/ST/STM32_USB_Device_Library/Class/MSC/Src/usbd_msc_scsi.c ****     
 324:Middlewares/ST/STM32_USB_Device_Library/Class/MSC/Src/usbd_msc_scsi.c ****     hmsc->bot_data_length = 12;
 325:Middlewares/ST/STM32_USB_Device_Library/Class/MSC/Src/usbd_msc_scsi.c ****     return 0;
 326:Middlewares/ST/STM32_USB_Device_Library/Class/MSC/Src/usbd_msc_scsi.c ****   }
 327:Middlewares/ST/STM32_USB_Device_Library/Class/MSC/Src/usbd_msc_scsi.c **** }
 328:Middlewares/ST/STM32_USB_Device_Library/Class/MSC/Src/usbd_msc_scsi.c **** /**
 329:Middlewares/ST/STM32_USB_Device_Library/Class/MSC/Src/usbd_msc_scsi.c **** * @brief  SCSI_ModeSense6
 330:Middlewares/ST/STM32_USB_Device_Library/Class/MSC/Src/usbd_msc_scsi.c **** *         Process Mode Sense6 command
 331:Middlewares/ST/STM32_USB_Device_Library/Class/MSC/Src/usbd_msc_scsi.c **** * @param  lun: Logical unit number
 332:Middlewares/ST/STM32_USB_Device_Library/Class/MSC/Src/usbd_msc_scsi.c **** * @param  params: Command parameters
 333:Middlewares/ST/STM32_USB_Device_Library/Class/MSC/Src/usbd_msc_scsi.c **** * @retval status
 334:Middlewares/ST/STM32_USB_Device_Library/Class/MSC/Src/usbd_msc_scsi.c **** */
 335:Middlewares/ST/STM32_USB_Device_Library/Class/MSC/Src/usbd_msc_scsi.c **** static int8_t SCSI_ModeSense6 (USBD_HandleTypeDef  *pdev, uint8_t lun, uint8_t *params)
 336:Middlewares/ST/STM32_USB_Device_Library/Class/MSC/Src/usbd_msc_scsi.c **** {
 138              		.loc 1 336 1 is_stmt 1 view -0
 139              		.cfi_startproc
 140              		@ args = 0, pretend = 0, frame = 0
 141              		@ frame_needed = 0, uses_anonymous_args = 0
 142              		@ link register save eliminated.
 337:Middlewares/ST/STM32_USB_Device_Library/Class/MSC/Src/usbd_msc_scsi.c ****   USBD_MSC_BOT_HandleTypeDef  *hmsc = (USBD_MSC_BOT_HandleTypeDef*)pdev->pClassData; 
 143              		.loc 1 337 3 view .LVU38
 144              		.loc 1 337 32 is_stmt 0 view .LVU39
 145 0000 D0F81802 		ldr	r0, [r0, #536]
 146              	.LVL14:
 338:Middlewares/ST/STM32_USB_Device_Library/Class/MSC/Src/usbd_msc_scsi.c ****   uint16_t len = 8 ;
 147              		.loc 1 338 3 is_stmt 1 view .LVU40
 339:Middlewares/ST/STM32_USB_Device_Library/Class/MSC/Src/usbd_msc_scsi.c ****   hmsc->bot_data_length = len;
 148              		.loc 1 339 3 view .LVU41
 149              		.loc 1 339 25 is_stmt 0 view .LVU42
 150 0004 0823     		movs	r3, #8
 151 0006 4381     		strh	r3, [r0, #10]	@ movhi
 340:Middlewares/ST/STM32_USB_Device_Library/Class/MSC/Src/usbd_msc_scsi.c ****   
 341:Middlewares/ST/STM32_USB_Device_Library/Class/MSC/Src/usbd_msc_scsi.c ****   while (len) 
 152              		.loc 1 341 3 is_stmt 1 view .LVU43
 153              		.loc 1 341 9 is_stmt 0 view .LVU44
 154 0008 05E0     		b	.L11
 155              	.LVL15:
 156              	.L12:
 342:Middlewares/ST/STM32_USB_Device_Library/Class/MSC/Src/usbd_msc_scsi.c ****   {
 343:Middlewares/ST/STM32_USB_Device_Library/Class/MSC/Src/usbd_msc_scsi.c ****     len--;
 157              		.loc 1 343 5 is_stmt 1 view .LVU45
 158              		.loc 1 343 8 is_stmt 0 view .LVU46
 159 000a 013B     		subs	r3, r3, #1
 160              	.LVL16:
 161              		.loc 1 343 8 view .LVU47
 162 000c 9BB2     		uxth	r3, r3
 163              	.LVL17:
 344:Middlewares/ST/STM32_USB_Device_Library/Class/MSC/Src/usbd_msc_scsi.c ****     hmsc->bot_data[len] = MSC_Mode_Sense6_data[len];
 164              		.loc 1 344 5 is_stmt 1 view .LVU48
 165              		.loc 1 344 47 is_stmt 0 view .LVU49
 166 000e 044A     		ldr	r2, .L13
 167 0010 D15C     		ldrb	r1, [r2, r3]	@ zero_extendqisi2
 168              		.loc 1 344 25 view .LVU50
 169 0012 C218     		adds	r2, r0, r3
ARM GAS  C:\Users\gx\AppData\Local\Temp\ccExyhW8.s 			page 10


 170 0014 1173     		strb	r1, [r2, #12]
 171              	.LVL18:
 172              	.L11:
 341:Middlewares/ST/STM32_USB_Device_Library/Class/MSC/Src/usbd_msc_scsi.c ****   {
 173              		.loc 1 341 9 is_stmt 1 view .LVU51
 174 0016 002B     		cmp	r3, #0
 175 0018 F7D1     		bne	.L12
 345:Middlewares/ST/STM32_USB_Device_Library/Class/MSC/Src/usbd_msc_scsi.c ****   }
 346:Middlewares/ST/STM32_USB_Device_Library/Class/MSC/Src/usbd_msc_scsi.c ****   return 0;
 176              		.loc 1 346 3 view .LVU52
 347:Middlewares/ST/STM32_USB_Device_Library/Class/MSC/Src/usbd_msc_scsi.c **** }
 177              		.loc 1 347 1 is_stmt 0 view .LVU53
 178 001a 0020     		movs	r0, #0
 179              	.LVL19:
 180              		.loc 1 347 1 view .LVU54
 181 001c 7047     		bx	lr
 182              	.L14:
 183 001e 00BF     		.align	2
 184              	.L13:
 185 0020 00000000 		.word	MSC_Mode_Sense6_data
 186              		.cfi_endproc
 187              	.LFE131:
 189              		.section	.text.SCSI_ModeSense10,"ax",%progbits
 190              		.align	1
 191              		.syntax unified
 192              		.thumb
 193              		.thumb_func
 194              		.fpu fpv4-sp-d16
 196              	SCSI_ModeSense10:
 197              	.LVL20:
 198              	.LFB132:
 348:Middlewares/ST/STM32_USB_Device_Library/Class/MSC/Src/usbd_msc_scsi.c **** 
 349:Middlewares/ST/STM32_USB_Device_Library/Class/MSC/Src/usbd_msc_scsi.c **** /**
 350:Middlewares/ST/STM32_USB_Device_Library/Class/MSC/Src/usbd_msc_scsi.c **** * @brief  SCSI_ModeSense10
 351:Middlewares/ST/STM32_USB_Device_Library/Class/MSC/Src/usbd_msc_scsi.c **** *         Process Mode Sense10 command
 352:Middlewares/ST/STM32_USB_Device_Library/Class/MSC/Src/usbd_msc_scsi.c **** * @param  lun: Logical unit number
 353:Middlewares/ST/STM32_USB_Device_Library/Class/MSC/Src/usbd_msc_scsi.c **** * @param  params: Command parameters
 354:Middlewares/ST/STM32_USB_Device_Library/Class/MSC/Src/usbd_msc_scsi.c **** * @retval status
 355:Middlewares/ST/STM32_USB_Device_Library/Class/MSC/Src/usbd_msc_scsi.c **** */
 356:Middlewares/ST/STM32_USB_Device_Library/Class/MSC/Src/usbd_msc_scsi.c **** static int8_t SCSI_ModeSense10 (USBD_HandleTypeDef  *pdev, uint8_t lun, uint8_t *params)
 357:Middlewares/ST/STM32_USB_Device_Library/Class/MSC/Src/usbd_msc_scsi.c **** {
 199              		.loc 1 357 1 is_stmt 1 view -0
 200              		.cfi_startproc
 201              		@ args = 0, pretend = 0, frame = 0
 202              		@ frame_needed = 0, uses_anonymous_args = 0
 203              		@ link register save eliminated.
 358:Middlewares/ST/STM32_USB_Device_Library/Class/MSC/Src/usbd_msc_scsi.c ****   uint16_t len = 8;
 204              		.loc 1 358 3 view .LVU56
 359:Middlewares/ST/STM32_USB_Device_Library/Class/MSC/Src/usbd_msc_scsi.c ****   USBD_MSC_BOT_HandleTypeDef  *hmsc = (USBD_MSC_BOT_HandleTypeDef*)pdev->pClassData; 
 205              		.loc 1 359 3 view .LVU57
 206              		.loc 1 359 32 is_stmt 0 view .LVU58
 207 0000 D0F81802 		ldr	r0, [r0, #536]
 208              	.LVL21:
 360:Middlewares/ST/STM32_USB_Device_Library/Class/MSC/Src/usbd_msc_scsi.c ****   
 361:Middlewares/ST/STM32_USB_Device_Library/Class/MSC/Src/usbd_msc_scsi.c ****   hmsc->bot_data_length = len;
 209              		.loc 1 361 3 is_stmt 1 view .LVU59
 210              		.loc 1 361 25 is_stmt 0 view .LVU60
ARM GAS  C:\Users\gx\AppData\Local\Temp\ccExyhW8.s 			page 11


 211 0004 0823     		movs	r3, #8
 212 0006 4381     		strh	r3, [r0, #10]	@ movhi
 362:Middlewares/ST/STM32_USB_Device_Library/Class/MSC/Src/usbd_msc_scsi.c **** 
 363:Middlewares/ST/STM32_USB_Device_Library/Class/MSC/Src/usbd_msc_scsi.c ****   while (len) 
 213              		.loc 1 363 3 is_stmt 1 view .LVU61
 214              		.loc 1 363 9 is_stmt 0 view .LVU62
 215 0008 05E0     		b	.L16
 216              	.LVL22:
 217              	.L17:
 364:Middlewares/ST/STM32_USB_Device_Library/Class/MSC/Src/usbd_msc_scsi.c ****   {
 365:Middlewares/ST/STM32_USB_Device_Library/Class/MSC/Src/usbd_msc_scsi.c ****     len--;
 218              		.loc 1 365 5 is_stmt 1 view .LVU63
 219              		.loc 1 365 8 is_stmt 0 view .LVU64
 220 000a 013B     		subs	r3, r3, #1
 221              	.LVL23:
 222              		.loc 1 365 8 view .LVU65
 223 000c 9BB2     		uxth	r3, r3
 224              	.LVL24:
 366:Middlewares/ST/STM32_USB_Device_Library/Class/MSC/Src/usbd_msc_scsi.c ****     hmsc->bot_data[len] = MSC_Mode_Sense10_data[len];
 225              		.loc 1 366 5 is_stmt 1 view .LVU66
 226              		.loc 1 366 48 is_stmt 0 view .LVU67
 227 000e 044A     		ldr	r2, .L18
 228 0010 D15C     		ldrb	r1, [r2, r3]	@ zero_extendqisi2
 229              		.loc 1 366 25 view .LVU68
 230 0012 C218     		adds	r2, r0, r3
 231 0014 1173     		strb	r1, [r2, #12]
 232              	.LVL25:
 233              	.L16:
 363:Middlewares/ST/STM32_USB_Device_Library/Class/MSC/Src/usbd_msc_scsi.c ****   {
 234              		.loc 1 363 9 is_stmt 1 view .LVU69
 235 0016 002B     		cmp	r3, #0
 236 0018 F7D1     		bne	.L17
 367:Middlewares/ST/STM32_USB_Device_Library/Class/MSC/Src/usbd_msc_scsi.c ****   }
 368:Middlewares/ST/STM32_USB_Device_Library/Class/MSC/Src/usbd_msc_scsi.c ****   return 0;
 237              		.loc 1 368 3 view .LVU70
 369:Middlewares/ST/STM32_USB_Device_Library/Class/MSC/Src/usbd_msc_scsi.c **** }
 238              		.loc 1 369 1 is_stmt 0 view .LVU71
 239 001a 0020     		movs	r0, #0
 240              	.LVL26:
 241              		.loc 1 369 1 view .LVU72
 242 001c 7047     		bx	lr
 243              	.L19:
 244 001e 00BF     		.align	2
 245              	.L18:
 246 0020 00000000 		.word	MSC_Mode_Sense10_data
 247              		.cfi_endproc
 248              	.LFE132:
 250              		.section	.text.SCSI_RequestSense,"ax",%progbits
 251              		.align	1
 252              		.syntax unified
 253              		.thumb
 254              		.thumb_func
 255              		.fpu fpv4-sp-d16
 257              	SCSI_RequestSense:
 258              	.LVL27:
 259              	.LFB133:
 370:Middlewares/ST/STM32_USB_Device_Library/Class/MSC/Src/usbd_msc_scsi.c **** 
ARM GAS  C:\Users\gx\AppData\Local\Temp\ccExyhW8.s 			page 12


 371:Middlewares/ST/STM32_USB_Device_Library/Class/MSC/Src/usbd_msc_scsi.c **** /**
 372:Middlewares/ST/STM32_USB_Device_Library/Class/MSC/Src/usbd_msc_scsi.c **** * @brief  SCSI_RequestSense
 373:Middlewares/ST/STM32_USB_Device_Library/Class/MSC/Src/usbd_msc_scsi.c **** *         Process Request Sense command
 374:Middlewares/ST/STM32_USB_Device_Library/Class/MSC/Src/usbd_msc_scsi.c **** * @param  lun: Logical unit number
 375:Middlewares/ST/STM32_USB_Device_Library/Class/MSC/Src/usbd_msc_scsi.c **** * @param  params: Command parameters
 376:Middlewares/ST/STM32_USB_Device_Library/Class/MSC/Src/usbd_msc_scsi.c **** * @retval status
 377:Middlewares/ST/STM32_USB_Device_Library/Class/MSC/Src/usbd_msc_scsi.c **** */
 378:Middlewares/ST/STM32_USB_Device_Library/Class/MSC/Src/usbd_msc_scsi.c **** 
 379:Middlewares/ST/STM32_USB_Device_Library/Class/MSC/Src/usbd_msc_scsi.c **** static int8_t SCSI_RequestSense (USBD_HandleTypeDef  *pdev, uint8_t lun, uint8_t *params)
 380:Middlewares/ST/STM32_USB_Device_Library/Class/MSC/Src/usbd_msc_scsi.c **** {
 260              		.loc 1 380 1 is_stmt 1 view -0
 261              		.cfi_startproc
 262              		@ args = 0, pretend = 0, frame = 0
 263              		@ frame_needed = 0, uses_anonymous_args = 0
 264              		@ link register save eliminated.
 265              		.loc 1 380 1 is_stmt 0 view .LVU74
 266 0000 10B4     		push	{r4}
 267              	.LCFI2:
 268              		.cfi_def_cfa_offset 4
 269              		.cfi_offset 4, -4
 381:Middlewares/ST/STM32_USB_Device_Library/Class/MSC/Src/usbd_msc_scsi.c ****   uint8_t i;
 270              		.loc 1 381 3 is_stmt 1 view .LVU75
 382:Middlewares/ST/STM32_USB_Device_Library/Class/MSC/Src/usbd_msc_scsi.c ****   USBD_MSC_BOT_HandleTypeDef  *hmsc = (USBD_MSC_BOT_HandleTypeDef*)pdev->pClassData; 
 271              		.loc 1 382 3 view .LVU76
 272              		.loc 1 382 32 is_stmt 0 view .LVU77
 273 0002 D0F81842 		ldr	r4, [r0, #536]
 274              	.LVL28:
 383:Middlewares/ST/STM32_USB_Device_Library/Class/MSC/Src/usbd_msc_scsi.c ****   
 384:Middlewares/ST/STM32_USB_Device_Library/Class/MSC/Src/usbd_msc_scsi.c ****   for(i=0 ; i < REQUEST_SENSE_DATA_LEN ; i++) 
 275              		.loc 1 384 3 is_stmt 1 view .LVU78
 276              		.loc 1 384 8 is_stmt 0 view .LVU79
 277 0006 0023     		movs	r3, #0
 278              	.LVL29:
 279              	.L21:
 280              		.loc 1 384 13 is_stmt 1 discriminator 1 view .LVU80
 281              		.loc 1 384 3 is_stmt 0 discriminator 1 view .LVU81
 282 0008 112B     		cmp	r3, #17
 283 000a 05D8     		bhi	.L26
 385:Middlewares/ST/STM32_USB_Device_Library/Class/MSC/Src/usbd_msc_scsi.c ****   {
 386:Middlewares/ST/STM32_USB_Device_Library/Class/MSC/Src/usbd_msc_scsi.c ****     hmsc->bot_data[i] = 0;
 284              		.loc 1 386 5 is_stmt 1 discriminator 3 view .LVU82
 285              		.loc 1 386 23 is_stmt 0 discriminator 3 view .LVU83
 286 000c E118     		adds	r1, r4, r3
 287 000e 0020     		movs	r0, #0
 288 0010 0873     		strb	r0, [r1, #12]
 384:Middlewares/ST/STM32_USB_Device_Library/Class/MSC/Src/usbd_msc_scsi.c ****   {
 289              		.loc 1 384 42 is_stmt 1 discriminator 3 view .LVU84
 384:Middlewares/ST/STM32_USB_Device_Library/Class/MSC/Src/usbd_msc_scsi.c ****   {
 290              		.loc 1 384 43 is_stmt 0 discriminator 3 view .LVU85
 291 0012 0133     		adds	r3, r3, #1
 292              	.LVL30:
 384:Middlewares/ST/STM32_USB_Device_Library/Class/MSC/Src/usbd_msc_scsi.c ****   {
 293              		.loc 1 384 43 discriminator 3 view .LVU86
 294 0014 DBB2     		uxtb	r3, r3
 295              	.LVL31:
 384:Middlewares/ST/STM32_USB_Device_Library/Class/MSC/Src/usbd_msc_scsi.c ****   {
 296              		.loc 1 384 43 discriminator 3 view .LVU87
ARM GAS  C:\Users\gx\AppData\Local\Temp\ccExyhW8.s 			page 13


 297 0016 F7E7     		b	.L21
 298              	.L26:
 387:Middlewares/ST/STM32_USB_Device_Library/Class/MSC/Src/usbd_msc_scsi.c ****   }
 388:Middlewares/ST/STM32_USB_Device_Library/Class/MSC/Src/usbd_msc_scsi.c ****   
 389:Middlewares/ST/STM32_USB_Device_Library/Class/MSC/Src/usbd_msc_scsi.c ****   hmsc->bot_data[0]	= 0x70;		
 299              		.loc 1 389 3 is_stmt 1 view .LVU88
 300              		.loc 1 389 21 is_stmt 0 view .LVU89
 301 0018 7023     		movs	r3, #112
 302              	.LVL32:
 303              		.loc 1 389 21 view .LVU90
 304 001a 2373     		strb	r3, [r4, #12]
 390:Middlewares/ST/STM32_USB_Device_Library/Class/MSC/Src/usbd_msc_scsi.c ****   hmsc->bot_data[7]	= REQUEST_SENSE_DATA_LEN - 6;	
 305              		.loc 1 390 3 is_stmt 1 view .LVU91
 306              		.loc 1 390 21 is_stmt 0 view .LVU92
 307 001c 0C23     		movs	r3, #12
 308 001e E374     		strb	r3, [r4, #19]
 391:Middlewares/ST/STM32_USB_Device_Library/Class/MSC/Src/usbd_msc_scsi.c ****   
 392:Middlewares/ST/STM32_USB_Device_Library/Class/MSC/Src/usbd_msc_scsi.c ****   if((hmsc->scsi_sense_head != hmsc->scsi_sense_tail)) {
 309              		.loc 1 392 3 is_stmt 1 view .LVU93
 310              		.loc 1 392 11 is_stmt 0 view .LVU94
 311 0020 94F85C32 		ldrb	r3, [r4, #604]	@ zero_extendqisi2
 312              		.loc 1 392 36 view .LVU95
 313 0024 94F85D12 		ldrb	r1, [r4, #605]	@ zero_extendqisi2
 314              		.loc 1 392 5 view .LVU96
 315 0028 8B42     		cmp	r3, r1
 316 002a 0FD0     		beq	.L23
 393:Middlewares/ST/STM32_USB_Device_Library/Class/MSC/Src/usbd_msc_scsi.c ****     
 394:Middlewares/ST/STM32_USB_Device_Library/Class/MSC/Src/usbd_msc_scsi.c ****     hmsc->bot_data[2]     = hmsc->scsi_sense[hmsc->scsi_sense_head].Skey;		
 317              		.loc 1 394 5 is_stmt 1 view .LVU97
 318              		.loc 1 394 68 is_stmt 0 view .LVU98
 319 002c 03F14701 		add	r1, r3, #71
 320 0030 04EBC101 		add	r1, r4, r1, lsl #3
 321 0034 0879     		ldrb	r0, [r1, #4]	@ zero_extendqisi2
 322              		.loc 1 394 27 view .LVU99
 323 0036 A073     		strb	r0, [r4, #14]
 395:Middlewares/ST/STM32_USB_Device_Library/Class/MSC/Src/usbd_msc_scsi.c ****     hmsc->bot_data[12]    = hmsc->scsi_sense[hmsc->scsi_sense_head].w.b.ASCQ;	
 324              		.loc 1 395 5 is_stmt 1 view .LVU100
 325              		.loc 1 395 72 is_stmt 0 view .LVU101
 326 0038 487A     		ldrb	r0, [r1, #9]	@ zero_extendqisi2
 327              		.loc 1 395 27 view .LVU102
 328 003a 2076     		strb	r0, [r4, #24]
 396:Middlewares/ST/STM32_USB_Device_Library/Class/MSC/Src/usbd_msc_scsi.c ****     hmsc->bot_data[13]    = hmsc->scsi_sense[hmsc->scsi_sense_head].w.b.ASC;	
 329              		.loc 1 396 5 is_stmt 1 view .LVU103
 330              		.loc 1 396 72 is_stmt 0 view .LVU104
 331 003c 097A     		ldrb	r1, [r1, #8]	@ zero_extendqisi2
 332              		.loc 1 396 27 view .LVU105
 333 003e 6176     		strb	r1, [r4, #25]
 397:Middlewares/ST/STM32_USB_Device_Library/Class/MSC/Src/usbd_msc_scsi.c ****     hmsc->scsi_sense_head++;
 334              		.loc 1 397 5 is_stmt 1 view .LVU106
 335              		.loc 1 397 26 is_stmt 0 view .LVU107
 336 0040 0133     		adds	r3, r3, #1
 337 0042 DBB2     		uxtb	r3, r3
 338 0044 84F85C32 		strb	r3, [r4, #604]
 398:Middlewares/ST/STM32_USB_Device_Library/Class/MSC/Src/usbd_msc_scsi.c ****     
 399:Middlewares/ST/STM32_USB_Device_Library/Class/MSC/Src/usbd_msc_scsi.c ****     if (hmsc->scsi_sense_head == SENSE_LIST_DEEPTH)
 339              		.loc 1 399 5 is_stmt 1 view .LVU108
 340              		.loc 1 399 8 is_stmt 0 view .LVU109
ARM GAS  C:\Users\gx\AppData\Local\Temp\ccExyhW8.s 			page 14


 341 0048 042B     		cmp	r3, #4
 342 004a 09D0     		beq	.L27
 343              	.L23:
 400:Middlewares/ST/STM32_USB_Device_Library/Class/MSC/Src/usbd_msc_scsi.c ****     {
 401:Middlewares/ST/STM32_USB_Device_Library/Class/MSC/Src/usbd_msc_scsi.c ****       hmsc->scsi_sense_head = 0;
 402:Middlewares/ST/STM32_USB_Device_Library/Class/MSC/Src/usbd_msc_scsi.c ****     }
 403:Middlewares/ST/STM32_USB_Device_Library/Class/MSC/Src/usbd_msc_scsi.c ****   }
 404:Middlewares/ST/STM32_USB_Device_Library/Class/MSC/Src/usbd_msc_scsi.c ****   hmsc->bot_data_length = REQUEST_SENSE_DATA_LEN;  
 344              		.loc 1 404 3 is_stmt 1 view .LVU110
 345              		.loc 1 404 25 is_stmt 0 view .LVU111
 346 004c 1223     		movs	r3, #18
 347 004e 6381     		strh	r3, [r4, #10]	@ movhi
 405:Middlewares/ST/STM32_USB_Device_Library/Class/MSC/Src/usbd_msc_scsi.c ****   
 406:Middlewares/ST/STM32_USB_Device_Library/Class/MSC/Src/usbd_msc_scsi.c ****   if (params[4] <= REQUEST_SENSE_DATA_LEN)
 348              		.loc 1 406 3 is_stmt 1 view .LVU112
 349              		.loc 1 406 13 is_stmt 0 view .LVU113
 350 0050 1379     		ldrb	r3, [r2, #4]	@ zero_extendqisi2
 351              		.loc 1 406 6 view .LVU114
 352 0052 122B     		cmp	r3, #18
 353 0054 00D8     		bhi	.L24
 407:Middlewares/ST/STM32_USB_Device_Library/Class/MSC/Src/usbd_msc_scsi.c ****   {
 408:Middlewares/ST/STM32_USB_Device_Library/Class/MSC/Src/usbd_msc_scsi.c ****     hmsc->bot_data_length = params[4];
 354              		.loc 1 408 5 is_stmt 1 view .LVU115
 355              		.loc 1 408 27 is_stmt 0 view .LVU116
 356 0056 6381     		strh	r3, [r4, #10]	@ movhi
 357              	.L24:
 409:Middlewares/ST/STM32_USB_Device_Library/Class/MSC/Src/usbd_msc_scsi.c ****   }
 410:Middlewares/ST/STM32_USB_Device_Library/Class/MSC/Src/usbd_msc_scsi.c ****   return 0;
 358              		.loc 1 410 3 is_stmt 1 view .LVU117
 411:Middlewares/ST/STM32_USB_Device_Library/Class/MSC/Src/usbd_msc_scsi.c **** }
 359              		.loc 1 411 1 is_stmt 0 view .LVU118
 360 0058 0020     		movs	r0, #0
 361 005a 5DF8044B 		ldr	r4, [sp], #4
 362              	.LCFI3:
 363              		.cfi_remember_state
 364              		.cfi_restore 4
 365              		.cfi_def_cfa_offset 0
 366              	.LVL33:
 367              		.loc 1 411 1 view .LVU119
 368 005e 7047     		bx	lr
 369              	.LVL34:
 370              	.L27:
 371              	.LCFI4:
 372              		.cfi_restore_state
 401:Middlewares/ST/STM32_USB_Device_Library/Class/MSC/Src/usbd_msc_scsi.c ****     }
 373              		.loc 1 401 7 is_stmt 1 view .LVU120
 401:Middlewares/ST/STM32_USB_Device_Library/Class/MSC/Src/usbd_msc_scsi.c ****     }
 374              		.loc 1 401 29 is_stmt 0 view .LVU121
 375 0060 0023     		movs	r3, #0
 376 0062 84F85C32 		strb	r3, [r4, #604]
 377 0066 F1E7     		b	.L23
 378              		.cfi_endproc
 379              	.LFE133:
 381              		.section	.text.SCSI_StartStopUnit,"ax",%progbits
 382              		.align	1
 383              		.syntax unified
 384              		.thumb
ARM GAS  C:\Users\gx\AppData\Local\Temp\ccExyhW8.s 			page 15


 385              		.thumb_func
 386              		.fpu fpv4-sp-d16
 388              	SCSI_StartStopUnit:
 389              	.LVL35:
 390              	.LFB135:
 412:Middlewares/ST/STM32_USB_Device_Library/Class/MSC/Src/usbd_msc_scsi.c **** 
 413:Middlewares/ST/STM32_USB_Device_Library/Class/MSC/Src/usbd_msc_scsi.c **** /**
 414:Middlewares/ST/STM32_USB_Device_Library/Class/MSC/Src/usbd_msc_scsi.c **** * @brief  SCSI_SenseCode
 415:Middlewares/ST/STM32_USB_Device_Library/Class/MSC/Src/usbd_msc_scsi.c **** *         Load the last error code in the error list
 416:Middlewares/ST/STM32_USB_Device_Library/Class/MSC/Src/usbd_msc_scsi.c **** * @param  lun: Logical unit number
 417:Middlewares/ST/STM32_USB_Device_Library/Class/MSC/Src/usbd_msc_scsi.c **** * @param  sKey: Sense Key
 418:Middlewares/ST/STM32_USB_Device_Library/Class/MSC/Src/usbd_msc_scsi.c **** * @param  ASC: Additional Sense Key
 419:Middlewares/ST/STM32_USB_Device_Library/Class/MSC/Src/usbd_msc_scsi.c **** * @retval none
 420:Middlewares/ST/STM32_USB_Device_Library/Class/MSC/Src/usbd_msc_scsi.c **** 
 421:Middlewares/ST/STM32_USB_Device_Library/Class/MSC/Src/usbd_msc_scsi.c **** */
 422:Middlewares/ST/STM32_USB_Device_Library/Class/MSC/Src/usbd_msc_scsi.c **** void SCSI_SenseCode(USBD_HandleTypeDef  *pdev, uint8_t lun, uint8_t sKey, uint8_t ASC)
 423:Middlewares/ST/STM32_USB_Device_Library/Class/MSC/Src/usbd_msc_scsi.c **** {
 424:Middlewares/ST/STM32_USB_Device_Library/Class/MSC/Src/usbd_msc_scsi.c ****   USBD_MSC_BOT_HandleTypeDef  *hmsc = (USBD_MSC_BOT_HandleTypeDef*)pdev->pClassData; 
 425:Middlewares/ST/STM32_USB_Device_Library/Class/MSC/Src/usbd_msc_scsi.c ****   
 426:Middlewares/ST/STM32_USB_Device_Library/Class/MSC/Src/usbd_msc_scsi.c ****   hmsc->scsi_sense[hmsc->scsi_sense_tail].Skey  = sKey;
 427:Middlewares/ST/STM32_USB_Device_Library/Class/MSC/Src/usbd_msc_scsi.c ****   hmsc->scsi_sense[hmsc->scsi_sense_tail].w.ASC = ASC << 8;
 428:Middlewares/ST/STM32_USB_Device_Library/Class/MSC/Src/usbd_msc_scsi.c ****   hmsc->scsi_sense_tail++;
 429:Middlewares/ST/STM32_USB_Device_Library/Class/MSC/Src/usbd_msc_scsi.c ****   if (hmsc->scsi_sense_tail == SENSE_LIST_DEEPTH)
 430:Middlewares/ST/STM32_USB_Device_Library/Class/MSC/Src/usbd_msc_scsi.c ****   {
 431:Middlewares/ST/STM32_USB_Device_Library/Class/MSC/Src/usbd_msc_scsi.c ****     hmsc->scsi_sense_tail = 0;
 432:Middlewares/ST/STM32_USB_Device_Library/Class/MSC/Src/usbd_msc_scsi.c ****   }
 433:Middlewares/ST/STM32_USB_Device_Library/Class/MSC/Src/usbd_msc_scsi.c **** }
 434:Middlewares/ST/STM32_USB_Device_Library/Class/MSC/Src/usbd_msc_scsi.c **** /**
 435:Middlewares/ST/STM32_USB_Device_Library/Class/MSC/Src/usbd_msc_scsi.c **** * @brief  SCSI_StartStopUnit
 436:Middlewares/ST/STM32_USB_Device_Library/Class/MSC/Src/usbd_msc_scsi.c **** *         Process Start Stop Unit command
 437:Middlewares/ST/STM32_USB_Device_Library/Class/MSC/Src/usbd_msc_scsi.c **** * @param  lun: Logical unit number
 438:Middlewares/ST/STM32_USB_Device_Library/Class/MSC/Src/usbd_msc_scsi.c **** * @param  params: Command parameters
 439:Middlewares/ST/STM32_USB_Device_Library/Class/MSC/Src/usbd_msc_scsi.c **** * @retval status
 440:Middlewares/ST/STM32_USB_Device_Library/Class/MSC/Src/usbd_msc_scsi.c **** */
 441:Middlewares/ST/STM32_USB_Device_Library/Class/MSC/Src/usbd_msc_scsi.c **** static int8_t SCSI_StartStopUnit(USBD_HandleTypeDef  *pdev, uint8_t lun, uint8_t *params)
 442:Middlewares/ST/STM32_USB_Device_Library/Class/MSC/Src/usbd_msc_scsi.c **** {
 391              		.loc 1 442 1 is_stmt 1 view -0
 392              		.cfi_startproc
 393              		@ args = 0, pretend = 0, frame = 0
 394              		@ frame_needed = 0, uses_anonymous_args = 0
 395              		@ link register save eliminated.
 443:Middlewares/ST/STM32_USB_Device_Library/Class/MSC/Src/usbd_msc_scsi.c ****   USBD_MSC_BOT_HandleTypeDef  *hmsc = (USBD_MSC_BOT_HandleTypeDef*) pdev->pClassData;   
 396              		.loc 1 443 3 view .LVU123
 397              		.loc 1 443 32 is_stmt 0 view .LVU124
 398 0000 D0F81832 		ldr	r3, [r0, #536]
 399              	.LVL36:
 444:Middlewares/ST/STM32_USB_Device_Library/Class/MSC/Src/usbd_msc_scsi.c ****   hmsc->bot_data_length = 0;
 400              		.loc 1 444 3 is_stmt 1 view .LVU125
 401              		.loc 1 444 25 is_stmt 0 view .LVU126
 402 0004 0020     		movs	r0, #0
 403              	.LVL37:
 404              		.loc 1 444 25 view .LVU127
 405 0006 5881     		strh	r0, [r3, #10]	@ movhi
 445:Middlewares/ST/STM32_USB_Device_Library/Class/MSC/Src/usbd_msc_scsi.c ****   return 0;
 406              		.loc 1 445 3 is_stmt 1 view .LVU128
 446:Middlewares/ST/STM32_USB_Device_Library/Class/MSC/Src/usbd_msc_scsi.c **** }
 407              		.loc 1 446 1 is_stmt 0 view .LVU129
ARM GAS  C:\Users\gx\AppData\Local\Temp\ccExyhW8.s 			page 16


 408 0008 7047     		bx	lr
 409              		.cfi_endproc
 410              	.LFE135:
 412              		.section	.text.SCSI_SenseCode,"ax",%progbits
 413              		.align	1
 414              		.global	SCSI_SenseCode
 415              		.syntax unified
 416              		.thumb
 417              		.thumb_func
 418              		.fpu fpv4-sp-d16
 420              	SCSI_SenseCode:
 421              	.LVL38:
 422              	.LFB134:
 423:Middlewares/ST/STM32_USB_Device_Library/Class/MSC/Src/usbd_msc_scsi.c ****   USBD_MSC_BOT_HandleTypeDef  *hmsc = (USBD_MSC_BOT_HandleTypeDef*)pdev->pClassData; 
 423              		.loc 1 423 1 is_stmt 1 view -0
 424              		.cfi_startproc
 425              		@ args = 0, pretend = 0, frame = 0
 426              		@ frame_needed = 0, uses_anonymous_args = 0
 427              		@ link register save eliminated.
 423:Middlewares/ST/STM32_USB_Device_Library/Class/MSC/Src/usbd_msc_scsi.c ****   USBD_MSC_BOT_HandleTypeDef  *hmsc = (USBD_MSC_BOT_HandleTypeDef*)pdev->pClassData; 
 428              		.loc 1 423 1 is_stmt 0 view .LVU131
 429 0000 10B4     		push	{r4}
 430              	.LCFI5:
 431              		.cfi_def_cfa_offset 4
 432              		.cfi_offset 4, -4
 424:Middlewares/ST/STM32_USB_Device_Library/Class/MSC/Src/usbd_msc_scsi.c ****   
 433              		.loc 1 424 3 is_stmt 1 view .LVU132
 424:Middlewares/ST/STM32_USB_Device_Library/Class/MSC/Src/usbd_msc_scsi.c ****   
 434              		.loc 1 424 32 is_stmt 0 view .LVU133
 435 0002 D0F81842 		ldr	r4, [r0, #536]
 436              	.LVL39:
 426:Middlewares/ST/STM32_USB_Device_Library/Class/MSC/Src/usbd_msc_scsi.c ****   hmsc->scsi_sense[hmsc->scsi_sense_tail].w.ASC = ASC << 8;
 437              		.loc 1 426 3 is_stmt 1 view .LVU134
 426:Middlewares/ST/STM32_USB_Device_Library/Class/MSC/Src/usbd_msc_scsi.c ****   hmsc->scsi_sense[hmsc->scsi_sense_tail].w.ASC = ASC << 8;
 438              		.loc 1 426 24 is_stmt 0 view .LVU135
 439 0006 94F85D12 		ldrb	r1, [r4, #605]	@ zero_extendqisi2
 440              	.LVL40:
 426:Middlewares/ST/STM32_USB_Device_Library/Class/MSC/Src/usbd_msc_scsi.c ****   hmsc->scsi_sense[hmsc->scsi_sense_tail].w.ASC = ASC << 8;
 441              		.loc 1 426 49 view .LVU136
 442 000a 01F14700 		add	r0, r1, #71
 443              	.LVL41:
 426:Middlewares/ST/STM32_USB_Device_Library/Class/MSC/Src/usbd_msc_scsi.c ****   hmsc->scsi_sense[hmsc->scsi_sense_tail].w.ASC = ASC << 8;
 444              		.loc 1 426 49 view .LVU137
 445 000e 04EBC000 		add	r0, r4, r0, lsl #3
 446 0012 0271     		strb	r2, [r0, #4]
 427:Middlewares/ST/STM32_USB_Device_Library/Class/MSC/Src/usbd_msc_scsi.c ****   hmsc->scsi_sense_tail++;
 447              		.loc 1 427 3 is_stmt 1 view .LVU138
 427:Middlewares/ST/STM32_USB_Device_Library/Class/MSC/Src/usbd_msc_scsi.c ****   hmsc->scsi_sense_tail++;
 448              		.loc 1 427 55 is_stmt 0 view .LVU139
 449 0014 1B02     		lsls	r3, r3, #8
 450              	.LVL42:
 427:Middlewares/ST/STM32_USB_Device_Library/Class/MSC/Src/usbd_msc_scsi.c ****   hmsc->scsi_sense_tail++;
 451              		.loc 1 427 49 view .LVU140
 452 0016 8360     		str	r3, [r0, #8]
 428:Middlewares/ST/STM32_USB_Device_Library/Class/MSC/Src/usbd_msc_scsi.c ****   if (hmsc->scsi_sense_tail == SENSE_LIST_DEEPTH)
 453              		.loc 1 428 3 is_stmt 1 view .LVU141
 428:Middlewares/ST/STM32_USB_Device_Library/Class/MSC/Src/usbd_msc_scsi.c ****   if (hmsc->scsi_sense_tail == SENSE_LIST_DEEPTH)
ARM GAS  C:\Users\gx\AppData\Local\Temp\ccExyhW8.s 			page 17


 454              		.loc 1 428 24 is_stmt 0 view .LVU142
 455 0018 0131     		adds	r1, r1, #1
 456 001a C9B2     		uxtb	r1, r1
 457 001c 84F85D12 		strb	r1, [r4, #605]
 429:Middlewares/ST/STM32_USB_Device_Library/Class/MSC/Src/usbd_msc_scsi.c ****   {
 458              		.loc 1 429 3 is_stmt 1 view .LVU143
 429:Middlewares/ST/STM32_USB_Device_Library/Class/MSC/Src/usbd_msc_scsi.c ****   {
 459              		.loc 1 429 6 is_stmt 0 view .LVU144
 460 0020 0429     		cmp	r1, #4
 461 0022 02D0     		beq	.L32
 462              	.L29:
 433:Middlewares/ST/STM32_USB_Device_Library/Class/MSC/Src/usbd_msc_scsi.c **** /**
 463              		.loc 1 433 1 view .LVU145
 464 0024 5DF8044B 		ldr	r4, [sp], #4
 465              	.LCFI6:
 466              		.cfi_remember_state
 467              		.cfi_restore 4
 468              		.cfi_def_cfa_offset 0
 469              	.LVL43:
 433:Middlewares/ST/STM32_USB_Device_Library/Class/MSC/Src/usbd_msc_scsi.c **** /**
 470              		.loc 1 433 1 view .LVU146
 471 0028 7047     		bx	lr
 472              	.LVL44:
 473              	.L32:
 474              	.LCFI7:
 475              		.cfi_restore_state
 431:Middlewares/ST/STM32_USB_Device_Library/Class/MSC/Src/usbd_msc_scsi.c ****   }
 476              		.loc 1 431 5 is_stmt 1 view .LVU147
 431:Middlewares/ST/STM32_USB_Device_Library/Class/MSC/Src/usbd_msc_scsi.c ****   }
 477              		.loc 1 431 27 is_stmt 0 view .LVU148
 478 002a 0023     		movs	r3, #0
 479 002c 84F85D32 		strb	r3, [r4, #605]
 433:Middlewares/ST/STM32_USB_Device_Library/Class/MSC/Src/usbd_msc_scsi.c **** /**
 480              		.loc 1 433 1 view .LVU149
 481 0030 F8E7     		b	.L29
 482              		.cfi_endproc
 483              	.LFE134:
 485              		.section	.text.SCSI_TestUnitReady,"ax",%progbits
 486              		.align	1
 487              		.syntax unified
 488              		.thumb
 489              		.thumb_func
 490              		.fpu fpv4-sp-d16
 492              	SCSI_TestUnitReady:
 493              	.LVL45:
 494              	.LFB127:
 181:Middlewares/ST/STM32_USB_Device_Library/Class/MSC/Src/usbd_msc_scsi.c ****   USBD_MSC_BOT_HandleTypeDef  *hmsc = (USBD_MSC_BOT_HandleTypeDef*)pdev->pClassData;  
 495              		.loc 1 181 1 is_stmt 1 view -0
 496              		.cfi_startproc
 497              		@ args = 0, pretend = 0, frame = 0
 498              		@ frame_needed = 0, uses_anonymous_args = 0
 181:Middlewares/ST/STM32_USB_Device_Library/Class/MSC/Src/usbd_msc_scsi.c ****   USBD_MSC_BOT_HandleTypeDef  *hmsc = (USBD_MSC_BOT_HandleTypeDef*)pdev->pClassData;  
 499              		.loc 1 181 1 is_stmt 0 view .LVU151
 500 0000 70B5     		push	{r4, r5, r6, lr}
 501              	.LCFI8:
 502              		.cfi_def_cfa_offset 16
 503              		.cfi_offset 4, -16
ARM GAS  C:\Users\gx\AppData\Local\Temp\ccExyhW8.s 			page 18


 504              		.cfi_offset 5, -12
 505              		.cfi_offset 6, -8
 506              		.cfi_offset 14, -4
 507 0002 0446     		mov	r4, r0
 182:Middlewares/ST/STM32_USB_Device_Library/Class/MSC/Src/usbd_msc_scsi.c ****     
 508              		.loc 1 182 3 is_stmt 1 view .LVU152
 182:Middlewares/ST/STM32_USB_Device_Library/Class/MSC/Src/usbd_msc_scsi.c ****     
 509              		.loc 1 182 32 is_stmt 0 view .LVU153
 510 0004 D0F81862 		ldr	r6, [r0, #536]
 511              	.LVL46:
 185:Middlewares/ST/STM32_USB_Device_Library/Class/MSC/Src/usbd_msc_scsi.c ****   {
 512              		.loc 1 185 3 is_stmt 1 view .LVU154
 185:Middlewares/ST/STM32_USB_Device_Library/Class/MSC/Src/usbd_msc_scsi.c ****   {
 513              		.loc 1 185 16 is_stmt 0 view .LVU155
 514 0008 D6F81432 		ldr	r3, [r6, #532]
 185:Middlewares/ST/STM32_USB_Device_Library/Class/MSC/Src/usbd_msc_scsi.c ****   {
 515              		.loc 1 185 6 view .LVU156
 516 000c 4BB9     		cbnz	r3, .L38
 517 000e 0D46     		mov	r5, r1
 194:Middlewares/ST/STM32_USB_Device_Library/Class/MSC/Src/usbd_msc_scsi.c ****   {
 518              		.loc 1 194 3 is_stmt 1 view .LVU157
 194:Middlewares/ST/STM32_USB_Device_Library/Class/MSC/Src/usbd_msc_scsi.c ****   {
 519              		.loc 1 194 34 is_stmt 0 view .LVU158
 520 0010 D0F81C32 		ldr	r3, [r0, #540]
 194:Middlewares/ST/STM32_USB_Device_Library/Class/MSC/Src/usbd_msc_scsi.c ****   {
 521              		.loc 1 194 46 view .LVU159
 522 0014 9B68     		ldr	r3, [r3, #8]
 194:Middlewares/ST/STM32_USB_Device_Library/Class/MSC/Src/usbd_msc_scsi.c ****   {
 523              		.loc 1 194 7 view .LVU160
 524 0016 0846     		mov	r0, r1
 525              	.LVL47:
 194:Middlewares/ST/STM32_USB_Device_Library/Class/MSC/Src/usbd_msc_scsi.c ****   {
 526              		.loc 1 194 7 view .LVU161
 527 0018 9847     		blx	r3
 528              	.LVL48:
 194:Middlewares/ST/STM32_USB_Device_Library/Class/MSC/Src/usbd_msc_scsi.c ****   {
 529              		.loc 1 194 5 view .LVU162
 530 001a 58B9     		cbnz	r0, .L39
 204:Middlewares/ST/STM32_USB_Device_Library/Class/MSC/Src/usbd_msc_scsi.c ****   return 0;
 531              		.loc 1 204 3 is_stmt 1 view .LVU163
 204:Middlewares/ST/STM32_USB_Device_Library/Class/MSC/Src/usbd_msc_scsi.c ****   return 0;
 532              		.loc 1 204 25 is_stmt 0 view .LVU164
 533 001c 0023     		movs	r3, #0
 534 001e 7381     		strh	r3, [r6, #10]	@ movhi
 205:Middlewares/ST/STM32_USB_Device_Library/Class/MSC/Src/usbd_msc_scsi.c **** }
 535              		.loc 1 205 3 is_stmt 1 view .LVU165
 536              	.L35:
 206:Middlewares/ST/STM32_USB_Device_Library/Class/MSC/Src/usbd_msc_scsi.c **** 
 537              		.loc 1 206 1 is_stmt 0 view .LVU166
 538 0020 70BD     		pop	{r4, r5, r6, pc}
 539              	.LVL49:
 540              	.L38:
 187:Middlewares/ST/STM32_USB_Device_Library/Class/MSC/Src/usbd_msc_scsi.c ****                    hmsc->cbw.bLUN, 
 541              		.loc 1 187 5 is_stmt 1 view .LVU167
 542 0022 2023     		movs	r3, #32
 543 0024 0522     		movs	r2, #5
 544              	.LVL50:
ARM GAS  C:\Users\gx\AppData\Local\Temp\ccExyhW8.s 			page 19


 187:Middlewares/ST/STM32_USB_Device_Library/Class/MSC/Src/usbd_msc_scsi.c ****                    hmsc->cbw.bLUN, 
 545              		.loc 1 187 5 is_stmt 0 view .LVU168
 546 0026 96F81912 		ldrb	r1, [r6, #537]	@ zero_extendqisi2
 547              	.LVL51:
 187:Middlewares/ST/STM32_USB_Device_Library/Class/MSC/Src/usbd_msc_scsi.c ****                    hmsc->cbw.bLUN, 
 548              		.loc 1 187 5 view .LVU169
 549 002a FFF7FEFF 		bl	SCSI_SenseCode
 550              	.LVL52:
 191:Middlewares/ST/STM32_USB_Device_Library/Class/MSC/Src/usbd_msc_scsi.c ****   }  
 551              		.loc 1 191 5 is_stmt 1 view .LVU170
 191:Middlewares/ST/STM32_USB_Device_Library/Class/MSC/Src/usbd_msc_scsi.c ****   }  
 552              		.loc 1 191 12 is_stmt 0 view .LVU171
 553 002e 4FF0FF30 		mov	r0, #-1
 554 0032 F5E7     		b	.L35
 555              	.L39:
 196:Middlewares/ST/STM32_USB_Device_Library/Class/MSC/Src/usbd_msc_scsi.c ****                    lun,
 556              		.loc 1 196 5 is_stmt 1 view .LVU172
 557 0034 3A23     		movs	r3, #58
 558 0036 0222     		movs	r2, #2
 559 0038 2946     		mov	r1, r5
 560 003a 2046     		mov	r0, r4
 561 003c FFF7FEFF 		bl	SCSI_SenseCode
 562              	.LVL53:
 201:Middlewares/ST/STM32_USB_Device_Library/Class/MSC/Src/usbd_msc_scsi.c ****     return -1;
 563              		.loc 1 201 5 view .LVU173
 201:Middlewares/ST/STM32_USB_Device_Library/Class/MSC/Src/usbd_msc_scsi.c ****     return -1;
 564              		.loc 1 201 21 is_stmt 0 view .LVU174
 565 0040 0523     		movs	r3, #5
 566 0042 3372     		strb	r3, [r6, #8]
 202:Middlewares/ST/STM32_USB_Device_Library/Class/MSC/Src/usbd_msc_scsi.c ****   } 
 567              		.loc 1 202 5 is_stmt 1 view .LVU175
 202:Middlewares/ST/STM32_USB_Device_Library/Class/MSC/Src/usbd_msc_scsi.c ****   } 
 568              		.loc 1 202 12 is_stmt 0 view .LVU176
 569 0044 4FF0FF30 		mov	r0, #-1
 570 0048 EAE7     		b	.L35
 571              		.cfi_endproc
 572              	.LFE127:
 574              		.section	.text.SCSI_ReadFormatCapacity,"ax",%progbits
 575              		.align	1
 576              		.syntax unified
 577              		.thumb
 578              		.thumb_func
 579              		.fpu fpv4-sp-d16
 581              	SCSI_ReadFormatCapacity:
 582              	.LVL54:
 583              	.LFB130:
 291:Middlewares/ST/STM32_USB_Device_Library/Class/MSC/Src/usbd_msc_scsi.c ****   USBD_MSC_BOT_HandleTypeDef  *hmsc = (USBD_MSC_BOT_HandleTypeDef*)pdev->pClassData; 
 584              		.loc 1 291 1 is_stmt 1 view -0
 585              		.cfi_startproc
 586              		@ args = 0, pretend = 0, frame = 8
 587              		@ frame_needed = 0, uses_anonymous_args = 0
 291:Middlewares/ST/STM32_USB_Device_Library/Class/MSC/Src/usbd_msc_scsi.c ****   USBD_MSC_BOT_HandleTypeDef  *hmsc = (USBD_MSC_BOT_HandleTypeDef*)pdev->pClassData; 
 588              		.loc 1 291 1 is_stmt 0 view .LVU178
 589 0000 F0B5     		push	{r4, r5, r6, r7, lr}
 590              	.LCFI9:
 591              		.cfi_def_cfa_offset 20
 592              		.cfi_offset 4, -20
ARM GAS  C:\Users\gx\AppData\Local\Temp\ccExyhW8.s 			page 20


 593              		.cfi_offset 5, -16
 594              		.cfi_offset 6, -12
 595              		.cfi_offset 7, -8
 596              		.cfi_offset 14, -4
 597 0002 83B0     		sub	sp, sp, #12
 598              	.LCFI10:
 599              		.cfi_def_cfa_offset 32
 600 0004 0646     		mov	r6, r0
 601 0006 0F46     		mov	r7, r1
 292:Middlewares/ST/STM32_USB_Device_Library/Class/MSC/Src/usbd_msc_scsi.c ****   
 602              		.loc 1 292 3 is_stmt 1 view .LVU179
 292:Middlewares/ST/STM32_USB_Device_Library/Class/MSC/Src/usbd_msc_scsi.c ****   
 603              		.loc 1 292 32 is_stmt 0 view .LVU180
 604 0008 D0F81852 		ldr	r5, [r0, #536]
 605              	.LVL55:
 294:Middlewares/ST/STM32_USB_Device_Library/Class/MSC/Src/usbd_msc_scsi.c ****   uint32_t blk_nbr;
 606              		.loc 1 294 3 is_stmt 1 view .LVU181
 295:Middlewares/ST/STM32_USB_Device_Library/Class/MSC/Src/usbd_msc_scsi.c ****   uint16_t i;
 607              		.loc 1 295 3 view .LVU182
 296:Middlewares/ST/STM32_USB_Device_Library/Class/MSC/Src/usbd_msc_scsi.c ****   
 608              		.loc 1 296 3 view .LVU183
 298:Middlewares/ST/STM32_USB_Device_Library/Class/MSC/Src/usbd_msc_scsi.c ****   {
 609              		.loc 1 298 3 view .LVU184
 298:Middlewares/ST/STM32_USB_Device_Library/Class/MSC/Src/usbd_msc_scsi.c ****   {
 610              		.loc 1 298 8 is_stmt 0 view .LVU185
 611 000c 0023     		movs	r3, #0
 612              	.LVL56:
 613              	.L41:
 298:Middlewares/ST/STM32_USB_Device_Library/Class/MSC/Src/usbd_msc_scsi.c ****   {
 614              		.loc 1 298 13 is_stmt 1 discriminator 1 view .LVU186
 298:Middlewares/ST/STM32_USB_Device_Library/Class/MSC/Src/usbd_msc_scsi.c ****   {
 615              		.loc 1 298 3 is_stmt 0 discriminator 1 view .LVU187
 616 000e 0B2B     		cmp	r3, #11
 617 0010 05D8     		bhi	.L46
 300:Middlewares/ST/STM32_USB_Device_Library/Class/MSC/Src/usbd_msc_scsi.c ****   }
 618              		.loc 1 300 5 is_stmt 1 discriminator 3 view .LVU188
 300:Middlewares/ST/STM32_USB_Device_Library/Class/MSC/Src/usbd_msc_scsi.c ****   }
 619              		.loc 1 300 23 is_stmt 0 discriminator 3 view .LVU189
 620 0012 EA18     		adds	r2, r5, r3
 621 0014 0024     		movs	r4, #0
 622 0016 1473     		strb	r4, [r2, #12]
 298:Middlewares/ST/STM32_USB_Device_Library/Class/MSC/Src/usbd_msc_scsi.c ****   {
 623              		.loc 1 298 22 is_stmt 1 discriminator 3 view .LVU190
 298:Middlewares/ST/STM32_USB_Device_Library/Class/MSC/Src/usbd_msc_scsi.c ****   {
 624              		.loc 1 298 23 is_stmt 0 discriminator 3 view .LVU191
 625 0018 0133     		adds	r3, r3, #1
 626              	.LVL57:
 298:Middlewares/ST/STM32_USB_Device_Library/Class/MSC/Src/usbd_msc_scsi.c ****   {
 627              		.loc 1 298 23 discriminator 3 view .LVU192
 628 001a 9BB2     		uxth	r3, r3
 629              	.LVL58:
 298:Middlewares/ST/STM32_USB_Device_Library/Class/MSC/Src/usbd_msc_scsi.c ****   {
 630              		.loc 1 298 23 discriminator 3 view .LVU193
 631 001c F7E7     		b	.L41
 632              	.L46:
 303:Middlewares/ST/STM32_USB_Device_Library/Class/MSC/Src/usbd_msc_scsi.c ****   {
 633              		.loc 1 303 3 is_stmt 1 view .LVU194
ARM GAS  C:\Users\gx\AppData\Local\Temp\ccExyhW8.s 			page 21


 303:Middlewares/ST/STM32_USB_Device_Library/Class/MSC/Src/usbd_msc_scsi.c ****   {
 634              		.loc 1 303 34 is_stmt 0 view .LVU195
 635 001e D6F81C32 		ldr	r3, [r6, #540]
 636              	.LVL59:
 303:Middlewares/ST/STM32_USB_Device_Library/Class/MSC/Src/usbd_msc_scsi.c ****   {
 637              		.loc 1 303 46 view .LVU196
 638 0022 5B68     		ldr	r3, [r3, #4]
 303:Middlewares/ST/STM32_USB_Device_Library/Class/MSC/Src/usbd_msc_scsi.c ****   {
 639              		.loc 1 303 7 view .LVU197
 640 0024 0DF10602 		add	r2, sp, #6
 641 0028 6946     		mov	r1, sp
 642              	.LVL60:
 303:Middlewares/ST/STM32_USB_Device_Library/Class/MSC/Src/usbd_msc_scsi.c ****   {
 643              		.loc 1 303 7 view .LVU198
 644 002a 3846     		mov	r0, r7
 645              	.LVL61:
 303:Middlewares/ST/STM32_USB_Device_Library/Class/MSC/Src/usbd_msc_scsi.c ****   {
 646              		.loc 1 303 7 view .LVU199
 647 002c 9847     		blx	r3
 648              	.LVL62:
 303:Middlewares/ST/STM32_USB_Device_Library/Class/MSC/Src/usbd_msc_scsi.c ****   {
 649              		.loc 1 303 5 view .LVU200
 650 002e D0B9     		cbnz	r0, .L47
 313:Middlewares/ST/STM32_USB_Device_Library/Class/MSC/Src/usbd_msc_scsi.c ****     hmsc->bot_data[4] = (uint8_t)((blk_nbr - 1) >> 24);
 651              		.loc 1 313 5 is_stmt 1 view .LVU201
 313:Middlewares/ST/STM32_USB_Device_Library/Class/MSC/Src/usbd_msc_scsi.c ****     hmsc->bot_data[4] = (uint8_t)((blk_nbr - 1) >> 24);
 652              		.loc 1 313 23 is_stmt 0 view .LVU202
 653 0030 0823     		movs	r3, #8
 654 0032 EB73     		strb	r3, [r5, #15]
 314:Middlewares/ST/STM32_USB_Device_Library/Class/MSC/Src/usbd_msc_scsi.c ****     hmsc->bot_data[5] = (uint8_t)((blk_nbr - 1) >> 16);
 655              		.loc 1 314 5 is_stmt 1 view .LVU203
 314:Middlewares/ST/STM32_USB_Device_Library/Class/MSC/Src/usbd_msc_scsi.c ****     hmsc->bot_data[5] = (uint8_t)((blk_nbr - 1) >> 16);
 656              		.loc 1 314 44 is_stmt 0 view .LVU204
 657 0034 009A     		ldr	r2, [sp]
 658 0036 531E     		subs	r3, r2, #1
 314:Middlewares/ST/STM32_USB_Device_Library/Class/MSC/Src/usbd_msc_scsi.c ****     hmsc->bot_data[5] = (uint8_t)((blk_nbr - 1) >> 16);
 659              		.loc 1 314 25 view .LVU205
 660 0038 190E     		lsrs	r1, r3, #24
 314:Middlewares/ST/STM32_USB_Device_Library/Class/MSC/Src/usbd_msc_scsi.c ****     hmsc->bot_data[5] = (uint8_t)((blk_nbr - 1) >> 16);
 661              		.loc 1 314 23 view .LVU206
 662 003a 2974     		strb	r1, [r5, #16]
 315:Middlewares/ST/STM32_USB_Device_Library/Class/MSC/Src/usbd_msc_scsi.c ****     hmsc->bot_data[6] = (uint8_t)((blk_nbr - 1) >>  8);
 663              		.loc 1 315 5 is_stmt 1 view .LVU207
 315:Middlewares/ST/STM32_USB_Device_Library/Class/MSC/Src/usbd_msc_scsi.c ****     hmsc->bot_data[6] = (uint8_t)((blk_nbr - 1) >>  8);
 664              		.loc 1 315 25 is_stmt 0 view .LVU208
 665 003c C3F30741 		ubfx	r1, r3, #16, #8
 315:Middlewares/ST/STM32_USB_Device_Library/Class/MSC/Src/usbd_msc_scsi.c ****     hmsc->bot_data[6] = (uint8_t)((blk_nbr - 1) >>  8);
 666              		.loc 1 315 23 view .LVU209
 667 0040 6974     		strb	r1, [r5, #17]
 316:Middlewares/ST/STM32_USB_Device_Library/Class/MSC/Src/usbd_msc_scsi.c ****     hmsc->bot_data[7] = (uint8_t)(blk_nbr - 1);
 668              		.loc 1 316 5 is_stmt 1 view .LVU210
 316:Middlewares/ST/STM32_USB_Device_Library/Class/MSC/Src/usbd_msc_scsi.c ****     hmsc->bot_data[7] = (uint8_t)(blk_nbr - 1);
 669              		.loc 1 316 25 is_stmt 0 view .LVU211
 670 0042 C3F30723 		ubfx	r3, r3, #8, #8
 316:Middlewares/ST/STM32_USB_Device_Library/Class/MSC/Src/usbd_msc_scsi.c ****     hmsc->bot_data[7] = (uint8_t)(blk_nbr - 1);
 671              		.loc 1 316 23 view .LVU212
 672 0046 AB74     		strb	r3, [r5, #18]
ARM GAS  C:\Users\gx\AppData\Local\Temp\ccExyhW8.s 			page 22


 317:Middlewares/ST/STM32_USB_Device_Library/Class/MSC/Src/usbd_msc_scsi.c ****     
 673              		.loc 1 317 5 is_stmt 1 view .LVU213
 317:Middlewares/ST/STM32_USB_Device_Library/Class/MSC/Src/usbd_msc_scsi.c ****     
 674              		.loc 1 317 25 is_stmt 0 view .LVU214
 675 0048 013A     		subs	r2, r2, #1
 317:Middlewares/ST/STM32_USB_Device_Library/Class/MSC/Src/usbd_msc_scsi.c ****     
 676              		.loc 1 317 23 view .LVU215
 677 004a EA74     		strb	r2, [r5, #19]
 319:Middlewares/ST/STM32_USB_Device_Library/Class/MSC/Src/usbd_msc_scsi.c ****     hmsc->bot_data[9] = (uint8_t)(blk_size >>  16);
 678              		.loc 1 319 5 is_stmt 1 view .LVU216
 319:Middlewares/ST/STM32_USB_Device_Library/Class/MSC/Src/usbd_msc_scsi.c ****     hmsc->bot_data[9] = (uint8_t)(blk_size >>  16);
 679              		.loc 1 319 23 is_stmt 0 view .LVU217
 680 004c 0223     		movs	r3, #2
 681 004e 2B75     		strb	r3, [r5, #20]
 320:Middlewares/ST/STM32_USB_Device_Library/Class/MSC/Src/usbd_msc_scsi.c ****     hmsc->bot_data[10] = (uint8_t)(blk_size >>  8);
 682              		.loc 1 320 5 is_stmt 1 view .LVU218
 320:Middlewares/ST/STM32_USB_Device_Library/Class/MSC/Src/usbd_msc_scsi.c ****     hmsc->bot_data[10] = (uint8_t)(blk_size >>  8);
 683              		.loc 1 320 44 is_stmt 0 view .LVU219
 684 0050 BDF80630 		ldrh	r3, [sp, #6]
 320:Middlewares/ST/STM32_USB_Device_Library/Class/MSC/Src/usbd_msc_scsi.c ****     hmsc->bot_data[10] = (uint8_t)(blk_size >>  8);
 685              		.loc 1 320 25 view .LVU220
 686 0054 0022     		movs	r2, #0
 320:Middlewares/ST/STM32_USB_Device_Library/Class/MSC/Src/usbd_msc_scsi.c ****     hmsc->bot_data[10] = (uint8_t)(blk_size >>  8);
 687              		.loc 1 320 23 view .LVU221
 688 0056 6A75     		strb	r2, [r5, #21]
 321:Middlewares/ST/STM32_USB_Device_Library/Class/MSC/Src/usbd_msc_scsi.c ****     hmsc->bot_data[11] = (uint8_t)(blk_size);
 689              		.loc 1 321 5 is_stmt 1 view .LVU222
 321:Middlewares/ST/STM32_USB_Device_Library/Class/MSC/Src/usbd_msc_scsi.c ****     hmsc->bot_data[11] = (uint8_t)(blk_size);
 690              		.loc 1 321 26 is_stmt 0 view .LVU223
 691 0058 1A0A     		lsrs	r2, r3, #8
 321:Middlewares/ST/STM32_USB_Device_Library/Class/MSC/Src/usbd_msc_scsi.c ****     hmsc->bot_data[11] = (uint8_t)(blk_size);
 692              		.loc 1 321 24 view .LVU224
 693 005a AA75     		strb	r2, [r5, #22]
 322:Middlewares/ST/STM32_USB_Device_Library/Class/MSC/Src/usbd_msc_scsi.c ****     
 694              		.loc 1 322 5 is_stmt 1 view .LVU225
 322:Middlewares/ST/STM32_USB_Device_Library/Class/MSC/Src/usbd_msc_scsi.c ****     
 695              		.loc 1 322 24 is_stmt 0 view .LVU226
 696 005c EB75     		strb	r3, [r5, #23]
 324:Middlewares/ST/STM32_USB_Device_Library/Class/MSC/Src/usbd_msc_scsi.c ****     return 0;
 697              		.loc 1 324 5 is_stmt 1 view .LVU227
 324:Middlewares/ST/STM32_USB_Device_Library/Class/MSC/Src/usbd_msc_scsi.c ****     return 0;
 698              		.loc 1 324 27 is_stmt 0 view .LVU228
 699 005e 0C23     		movs	r3, #12
 700 0060 6B81     		strh	r3, [r5, #10]	@ movhi
 325:Middlewares/ST/STM32_USB_Device_Library/Class/MSC/Src/usbd_msc_scsi.c ****   }
 701              		.loc 1 325 5 is_stmt 1 view .LVU229
 702              	.L44:
 327:Middlewares/ST/STM32_USB_Device_Library/Class/MSC/Src/usbd_msc_scsi.c **** /**
 703              		.loc 1 327 1 is_stmt 0 view .LVU230
 704 0062 03B0     		add	sp, sp, #12
 705              	.LCFI11:
 706              		.cfi_remember_state
 707              		.cfi_def_cfa_offset 20
 708              		@ sp needed
 709 0064 F0BD     		pop	{r4, r5, r6, r7, pc}
 710              	.LVL63:
 711              	.L47:
ARM GAS  C:\Users\gx\AppData\Local\Temp\ccExyhW8.s 			page 23


 712              	.LCFI12:
 713              		.cfi_restore_state
 305:Middlewares/ST/STM32_USB_Device_Library/Class/MSC/Src/usbd_msc_scsi.c ****                    lun,
 714              		.loc 1 305 5 is_stmt 1 view .LVU231
 715 0066 3A23     		movs	r3, #58
 716 0068 0222     		movs	r2, #2
 717 006a 3946     		mov	r1, r7
 718 006c 3046     		mov	r0, r6
 719 006e FFF7FEFF 		bl	SCSI_SenseCode
 720              	.LVL64:
 309:Middlewares/ST/STM32_USB_Device_Library/Class/MSC/Src/usbd_msc_scsi.c ****   } 
 721              		.loc 1 309 5 view .LVU232
 309:Middlewares/ST/STM32_USB_Device_Library/Class/MSC/Src/usbd_msc_scsi.c ****   } 
 722              		.loc 1 309 12 is_stmt 0 view .LVU233
 723 0072 4FF0FF30 		mov	r0, #-1
 724 0076 F4E7     		b	.L44
 725              		.cfi_endproc
 726              	.LFE130:
 728              		.section	.text.SCSI_ReadCapacity10,"ax",%progbits
 729              		.align	1
 730              		.syntax unified
 731              		.thumb
 732              		.thumb_func
 733              		.fpu fpv4-sp-d16
 735              	SCSI_ReadCapacity10:
 736              	.LVL65:
 737              	.LFB129:
 255:Middlewares/ST/STM32_USB_Device_Library/Class/MSC/Src/usbd_msc_scsi.c ****   USBD_MSC_BOT_HandleTypeDef  *hmsc = (USBD_MSC_BOT_HandleTypeDef*)pdev->pClassData; 
 738              		.loc 1 255 1 is_stmt 1 view -0
 739              		.cfi_startproc
 740              		@ args = 0, pretend = 0, frame = 0
 741              		@ frame_needed = 0, uses_anonymous_args = 0
 255:Middlewares/ST/STM32_USB_Device_Library/Class/MSC/Src/usbd_msc_scsi.c ****   USBD_MSC_BOT_HandleTypeDef  *hmsc = (USBD_MSC_BOT_HandleTypeDef*)pdev->pClassData; 
 742              		.loc 1 255 1 is_stmt 0 view .LVU235
 743 0000 70B5     		push	{r4, r5, r6, lr}
 744              	.LCFI13:
 745              		.cfi_def_cfa_offset 16
 746              		.cfi_offset 4, -16
 747              		.cfi_offset 5, -12
 748              		.cfi_offset 6, -8
 749              		.cfi_offset 14, -4
 750 0002 0546     		mov	r5, r0
 751 0004 0E46     		mov	r6, r1
 256:Middlewares/ST/STM32_USB_Device_Library/Class/MSC/Src/usbd_msc_scsi.c ****   
 752              		.loc 1 256 3 is_stmt 1 view .LVU236
 256:Middlewares/ST/STM32_USB_Device_Library/Class/MSC/Src/usbd_msc_scsi.c ****   
 753              		.loc 1 256 32 is_stmt 0 view .LVU237
 754 0006 D0F81842 		ldr	r4, [r0, #536]
 755              	.LVL66:
 258:Middlewares/ST/STM32_USB_Device_Library/Class/MSC/Src/usbd_msc_scsi.c ****   {
 756              		.loc 1 258 3 is_stmt 1 view .LVU238
 258:Middlewares/ST/STM32_USB_Device_Library/Class/MSC/Src/usbd_msc_scsi.c ****   {
 757              		.loc 1 258 34 is_stmt 0 view .LVU239
 758 000a D0F81C32 		ldr	r3, [r0, #540]
 258:Middlewares/ST/STM32_USB_Device_Library/Class/MSC/Src/usbd_msc_scsi.c ****   {
 759              		.loc 1 258 46 view .LVU240
 760 000e 5B68     		ldr	r3, [r3, #4]
ARM GAS  C:\Users\gx\AppData\Local\Temp\ccExyhW8.s 			page 24


 258:Middlewares/ST/STM32_USB_Device_Library/Class/MSC/Src/usbd_msc_scsi.c ****   {
 761              		.loc 1 258 7 view .LVU241
 762 0010 04F25E22 		addw	r2, r4, #606
 763              	.LVL67:
 258:Middlewares/ST/STM32_USB_Device_Library/Class/MSC/Src/usbd_msc_scsi.c ****   {
 764              		.loc 1 258 7 view .LVU242
 765 0014 04F51871 		add	r1, r4, #608
 766              	.LVL68:
 258:Middlewares/ST/STM32_USB_Device_Library/Class/MSC/Src/usbd_msc_scsi.c ****   {
 767              		.loc 1 258 7 view .LVU243
 768 0018 3046     		mov	r0, r6
 769              	.LVL69:
 258:Middlewares/ST/STM32_USB_Device_Library/Class/MSC/Src/usbd_msc_scsi.c ****   {
 770              		.loc 1 258 7 view .LVU244
 771 001a 9847     		blx	r3
 772              	.LVL70:
 258:Middlewares/ST/STM32_USB_Device_Library/Class/MSC/Src/usbd_msc_scsi.c ****   {
 773              		.loc 1 258 5 view .LVU245
 774 001c B8B9     		cbnz	r0, .L52
 269:Middlewares/ST/STM32_USB_Device_Library/Class/MSC/Src/usbd_msc_scsi.c ****     hmsc->bot_data[1] = (uint8_t)((hmsc->scsi_blk_nbr - 1) >> 16);
 775              		.loc 1 269 5 is_stmt 1 view .LVU246
 269:Middlewares/ST/STM32_USB_Device_Library/Class/MSC/Src/usbd_msc_scsi.c ****     hmsc->bot_data[1] = (uint8_t)((hmsc->scsi_blk_nbr - 1) >> 16);
 776              		.loc 1 269 40 is_stmt 0 view .LVU247
 777 001e D4F86022 		ldr	r2, [r4, #608]
 269:Middlewares/ST/STM32_USB_Device_Library/Class/MSC/Src/usbd_msc_scsi.c ****     hmsc->bot_data[1] = (uint8_t)((hmsc->scsi_blk_nbr - 1) >> 16);
 778              		.loc 1 269 55 view .LVU248
 779 0022 531E     		subs	r3, r2, #1
 269:Middlewares/ST/STM32_USB_Device_Library/Class/MSC/Src/usbd_msc_scsi.c ****     hmsc->bot_data[1] = (uint8_t)((hmsc->scsi_blk_nbr - 1) >> 16);
 780              		.loc 1 269 25 view .LVU249
 781 0024 190E     		lsrs	r1, r3, #24
 269:Middlewares/ST/STM32_USB_Device_Library/Class/MSC/Src/usbd_msc_scsi.c ****     hmsc->bot_data[1] = (uint8_t)((hmsc->scsi_blk_nbr - 1) >> 16);
 782              		.loc 1 269 23 view .LVU250
 783 0026 2173     		strb	r1, [r4, #12]
 270:Middlewares/ST/STM32_USB_Device_Library/Class/MSC/Src/usbd_msc_scsi.c ****     hmsc->bot_data[2] = (uint8_t)((hmsc->scsi_blk_nbr - 1) >>  8);
 784              		.loc 1 270 5 is_stmt 1 view .LVU251
 270:Middlewares/ST/STM32_USB_Device_Library/Class/MSC/Src/usbd_msc_scsi.c ****     hmsc->bot_data[2] = (uint8_t)((hmsc->scsi_blk_nbr - 1) >>  8);
 785              		.loc 1 270 25 is_stmt 0 view .LVU252
 786 0028 C3F30741 		ubfx	r1, r3, #16, #8
 270:Middlewares/ST/STM32_USB_Device_Library/Class/MSC/Src/usbd_msc_scsi.c ****     hmsc->bot_data[2] = (uint8_t)((hmsc->scsi_blk_nbr - 1) >>  8);
 787              		.loc 1 270 23 view .LVU253
 788 002c 6173     		strb	r1, [r4, #13]
 271:Middlewares/ST/STM32_USB_Device_Library/Class/MSC/Src/usbd_msc_scsi.c ****     hmsc->bot_data[3] = (uint8_t)(hmsc->scsi_blk_nbr - 1);
 789              		.loc 1 271 5 is_stmt 1 view .LVU254
 271:Middlewares/ST/STM32_USB_Device_Library/Class/MSC/Src/usbd_msc_scsi.c ****     hmsc->bot_data[3] = (uint8_t)(hmsc->scsi_blk_nbr - 1);
 790              		.loc 1 271 25 is_stmt 0 view .LVU255
 791 002e C3F30723 		ubfx	r3, r3, #8, #8
 271:Middlewares/ST/STM32_USB_Device_Library/Class/MSC/Src/usbd_msc_scsi.c ****     hmsc->bot_data[3] = (uint8_t)(hmsc->scsi_blk_nbr - 1);
 792              		.loc 1 271 23 view .LVU256
 793 0032 A373     		strb	r3, [r4, #14]
 272:Middlewares/ST/STM32_USB_Device_Library/Class/MSC/Src/usbd_msc_scsi.c ****     
 794              		.loc 1 272 5 is_stmt 1 view .LVU257
 272:Middlewares/ST/STM32_USB_Device_Library/Class/MSC/Src/usbd_msc_scsi.c ****     
 795              		.loc 1 272 25 is_stmt 0 view .LVU258
 796 0034 013A     		subs	r2, r2, #1
 272:Middlewares/ST/STM32_USB_Device_Library/Class/MSC/Src/usbd_msc_scsi.c ****     
 797              		.loc 1 272 23 view .LVU259
 798 0036 E273     		strb	r2, [r4, #15]
ARM GAS  C:\Users\gx\AppData\Local\Temp\ccExyhW8.s 			page 25


 274:Middlewares/ST/STM32_USB_Device_Library/Class/MSC/Src/usbd_msc_scsi.c ****     hmsc->bot_data[5] = (uint8_t)(hmsc->scsi_blk_size >>  16);
 799              		.loc 1 274 5 is_stmt 1 view .LVU260
 274:Middlewares/ST/STM32_USB_Device_Library/Class/MSC/Src/usbd_msc_scsi.c ****     hmsc->bot_data[5] = (uint8_t)(hmsc->scsi_blk_size >>  16);
 800              		.loc 1 274 39 is_stmt 0 view .LVU261
 801 0038 B4F85E32 		ldrh	r3, [r4, #606]
 274:Middlewares/ST/STM32_USB_Device_Library/Class/MSC/Src/usbd_msc_scsi.c ****     hmsc->bot_data[5] = (uint8_t)(hmsc->scsi_blk_size >>  16);
 802              		.loc 1 274 25 view .LVU262
 803 003c 0022     		movs	r2, #0
 274:Middlewares/ST/STM32_USB_Device_Library/Class/MSC/Src/usbd_msc_scsi.c ****     hmsc->bot_data[5] = (uint8_t)(hmsc->scsi_blk_size >>  16);
 804              		.loc 1 274 23 view .LVU263
 805 003e 2274     		strb	r2, [r4, #16]
 275:Middlewares/ST/STM32_USB_Device_Library/Class/MSC/Src/usbd_msc_scsi.c ****     hmsc->bot_data[6] = (uint8_t)(hmsc->scsi_blk_size >>  8);
 806              		.loc 1 275 5 is_stmt 1 view .LVU264
 275:Middlewares/ST/STM32_USB_Device_Library/Class/MSC/Src/usbd_msc_scsi.c ****     hmsc->bot_data[6] = (uint8_t)(hmsc->scsi_blk_size >>  8);
 807              		.loc 1 275 23 is_stmt 0 view .LVU265
 808 0040 6274     		strb	r2, [r4, #17]
 276:Middlewares/ST/STM32_USB_Device_Library/Class/MSC/Src/usbd_msc_scsi.c ****     hmsc->bot_data[7] = (uint8_t)(hmsc->scsi_blk_size);
 809              		.loc 1 276 5 is_stmt 1 view .LVU266
 276:Middlewares/ST/STM32_USB_Device_Library/Class/MSC/Src/usbd_msc_scsi.c ****     hmsc->bot_data[7] = (uint8_t)(hmsc->scsi_blk_size);
 810              		.loc 1 276 25 is_stmt 0 view .LVU267
 811 0042 1A0A     		lsrs	r2, r3, #8
 276:Middlewares/ST/STM32_USB_Device_Library/Class/MSC/Src/usbd_msc_scsi.c ****     hmsc->bot_data[7] = (uint8_t)(hmsc->scsi_blk_size);
 812              		.loc 1 276 23 view .LVU268
 813 0044 A274     		strb	r2, [r4, #18]
 277:Middlewares/ST/STM32_USB_Device_Library/Class/MSC/Src/usbd_msc_scsi.c ****     
 814              		.loc 1 277 5 is_stmt 1 view .LVU269
 277:Middlewares/ST/STM32_USB_Device_Library/Class/MSC/Src/usbd_msc_scsi.c ****     
 815              		.loc 1 277 23 is_stmt 0 view .LVU270
 816 0046 E374     		strb	r3, [r4, #19]
 279:Middlewares/ST/STM32_USB_Device_Library/Class/MSC/Src/usbd_msc_scsi.c ****     return 0;
 817              		.loc 1 279 5 is_stmt 1 view .LVU271
 279:Middlewares/ST/STM32_USB_Device_Library/Class/MSC/Src/usbd_msc_scsi.c ****     return 0;
 818              		.loc 1 279 27 is_stmt 0 view .LVU272
 819 0048 0823     		movs	r3, #8
 820 004a 6381     		strh	r3, [r4, #10]	@ movhi
 280:Middlewares/ST/STM32_USB_Device_Library/Class/MSC/Src/usbd_msc_scsi.c ****   }
 821              		.loc 1 280 5 is_stmt 1 view .LVU273
 822              	.L50:
 282:Middlewares/ST/STM32_USB_Device_Library/Class/MSC/Src/usbd_msc_scsi.c **** /**
 823              		.loc 1 282 1 is_stmt 0 view .LVU274
 824 004c 70BD     		pop	{r4, r5, r6, pc}
 825              	.LVL71:
 826              	.L52:
 260:Middlewares/ST/STM32_USB_Device_Library/Class/MSC/Src/usbd_msc_scsi.c ****                    lun,
 827              		.loc 1 260 5 is_stmt 1 view .LVU275
 828 004e 3A23     		movs	r3, #58
 829 0050 0222     		movs	r2, #2
 830 0052 3146     		mov	r1, r6
 831 0054 2846     		mov	r0, r5
 832 0056 FFF7FEFF 		bl	SCSI_SenseCode
 833              	.LVL72:
 264:Middlewares/ST/STM32_USB_Device_Library/Class/MSC/Src/usbd_msc_scsi.c ****   } 
 834              		.loc 1 264 5 view .LVU276
 264:Middlewares/ST/STM32_USB_Device_Library/Class/MSC/Src/usbd_msc_scsi.c ****   } 
 835              		.loc 1 264 12 is_stmt 0 view .LVU277
 836 005a 4FF0FF30 		mov	r0, #-1
 837 005e F5E7     		b	.L50
ARM GAS  C:\Users\gx\AppData\Local\Temp\ccExyhW8.s 			page 26


 838              		.cfi_endproc
 839              	.LFE129:
 841              		.section	.text.SCSI_CheckAddressRange,"ax",%progbits
 842              		.align	1
 843              		.syntax unified
 844              		.thumb
 845              		.thumb_func
 846              		.fpu fpv4-sp-d16
 848              	SCSI_CheckAddressRange:
 849              	.LVL73:
 850              	.LFB139:
 447:Middlewares/ST/STM32_USB_Device_Library/Class/MSC/Src/usbd_msc_scsi.c **** 
 448:Middlewares/ST/STM32_USB_Device_Library/Class/MSC/Src/usbd_msc_scsi.c **** /**
 449:Middlewares/ST/STM32_USB_Device_Library/Class/MSC/Src/usbd_msc_scsi.c **** * @brief  SCSI_Read10
 450:Middlewares/ST/STM32_USB_Device_Library/Class/MSC/Src/usbd_msc_scsi.c **** *         Process Read10 command
 451:Middlewares/ST/STM32_USB_Device_Library/Class/MSC/Src/usbd_msc_scsi.c **** * @param  lun: Logical unit number
 452:Middlewares/ST/STM32_USB_Device_Library/Class/MSC/Src/usbd_msc_scsi.c **** * @param  params: Command parameters
 453:Middlewares/ST/STM32_USB_Device_Library/Class/MSC/Src/usbd_msc_scsi.c **** * @retval status
 454:Middlewares/ST/STM32_USB_Device_Library/Class/MSC/Src/usbd_msc_scsi.c **** */
 455:Middlewares/ST/STM32_USB_Device_Library/Class/MSC/Src/usbd_msc_scsi.c **** static int8_t SCSI_Read10(USBD_HandleTypeDef  *pdev, uint8_t lun , uint8_t *params)
 456:Middlewares/ST/STM32_USB_Device_Library/Class/MSC/Src/usbd_msc_scsi.c **** {
 457:Middlewares/ST/STM32_USB_Device_Library/Class/MSC/Src/usbd_msc_scsi.c ****   USBD_MSC_BOT_HandleTypeDef  *hmsc = (USBD_MSC_BOT_HandleTypeDef*) pdev->pClassData; 
 458:Middlewares/ST/STM32_USB_Device_Library/Class/MSC/Src/usbd_msc_scsi.c ****   
 459:Middlewares/ST/STM32_USB_Device_Library/Class/MSC/Src/usbd_msc_scsi.c ****   if(hmsc->bot_state == USBD_BOT_IDLE)  /* Idle */
 460:Middlewares/ST/STM32_USB_Device_Library/Class/MSC/Src/usbd_msc_scsi.c ****   {
 461:Middlewares/ST/STM32_USB_Device_Library/Class/MSC/Src/usbd_msc_scsi.c ****     
 462:Middlewares/ST/STM32_USB_Device_Library/Class/MSC/Src/usbd_msc_scsi.c ****     /* case 10 : Ho <> Di */
 463:Middlewares/ST/STM32_USB_Device_Library/Class/MSC/Src/usbd_msc_scsi.c ****     
 464:Middlewares/ST/STM32_USB_Device_Library/Class/MSC/Src/usbd_msc_scsi.c ****     if ((hmsc->cbw.bmFlags & 0x80) != 0x80)
 465:Middlewares/ST/STM32_USB_Device_Library/Class/MSC/Src/usbd_msc_scsi.c ****     {
 466:Middlewares/ST/STM32_USB_Device_Library/Class/MSC/Src/usbd_msc_scsi.c ****       SCSI_SenseCode(pdev,
 467:Middlewares/ST/STM32_USB_Device_Library/Class/MSC/Src/usbd_msc_scsi.c ****                      hmsc->cbw.bLUN, 
 468:Middlewares/ST/STM32_USB_Device_Library/Class/MSC/Src/usbd_msc_scsi.c ****                      ILLEGAL_REQUEST, 
 469:Middlewares/ST/STM32_USB_Device_Library/Class/MSC/Src/usbd_msc_scsi.c ****                      INVALID_CDB);
 470:Middlewares/ST/STM32_USB_Device_Library/Class/MSC/Src/usbd_msc_scsi.c ****       return -1;
 471:Middlewares/ST/STM32_USB_Device_Library/Class/MSC/Src/usbd_msc_scsi.c ****     }    
 472:Middlewares/ST/STM32_USB_Device_Library/Class/MSC/Src/usbd_msc_scsi.c ****     
 473:Middlewares/ST/STM32_USB_Device_Library/Class/MSC/Src/usbd_msc_scsi.c ****     if(((USBD_StorageTypeDef *)pdev->pUserData)->IsReady(lun) !=0 )
 474:Middlewares/ST/STM32_USB_Device_Library/Class/MSC/Src/usbd_msc_scsi.c ****     {
 475:Middlewares/ST/STM32_USB_Device_Library/Class/MSC/Src/usbd_msc_scsi.c ****       SCSI_SenseCode(pdev,
 476:Middlewares/ST/STM32_USB_Device_Library/Class/MSC/Src/usbd_msc_scsi.c ****                      lun,
 477:Middlewares/ST/STM32_USB_Device_Library/Class/MSC/Src/usbd_msc_scsi.c ****                      NOT_READY, 
 478:Middlewares/ST/STM32_USB_Device_Library/Class/MSC/Src/usbd_msc_scsi.c ****                      MEDIUM_NOT_PRESENT);
 479:Middlewares/ST/STM32_USB_Device_Library/Class/MSC/Src/usbd_msc_scsi.c ****       return -1;
 480:Middlewares/ST/STM32_USB_Device_Library/Class/MSC/Src/usbd_msc_scsi.c ****     } 
 481:Middlewares/ST/STM32_USB_Device_Library/Class/MSC/Src/usbd_msc_scsi.c ****     
 482:Middlewares/ST/STM32_USB_Device_Library/Class/MSC/Src/usbd_msc_scsi.c ****     hmsc->scsi_blk_addr = (params[2] << 24) | \
 483:Middlewares/ST/STM32_USB_Device_Library/Class/MSC/Src/usbd_msc_scsi.c ****       (params[3] << 16) | \
 484:Middlewares/ST/STM32_USB_Device_Library/Class/MSC/Src/usbd_msc_scsi.c ****         (params[4] <<  8) | \
 485:Middlewares/ST/STM32_USB_Device_Library/Class/MSC/Src/usbd_msc_scsi.c ****           params[5];
 486:Middlewares/ST/STM32_USB_Device_Library/Class/MSC/Src/usbd_msc_scsi.c ****     
 487:Middlewares/ST/STM32_USB_Device_Library/Class/MSC/Src/usbd_msc_scsi.c ****     hmsc->scsi_blk_len =  (params[7] <<  8) | \
 488:Middlewares/ST/STM32_USB_Device_Library/Class/MSC/Src/usbd_msc_scsi.c ****       params[8];  
 489:Middlewares/ST/STM32_USB_Device_Library/Class/MSC/Src/usbd_msc_scsi.c ****     
 490:Middlewares/ST/STM32_USB_Device_Library/Class/MSC/Src/usbd_msc_scsi.c ****     
 491:Middlewares/ST/STM32_USB_Device_Library/Class/MSC/Src/usbd_msc_scsi.c ****     
 492:Middlewares/ST/STM32_USB_Device_Library/Class/MSC/Src/usbd_msc_scsi.c ****     if( SCSI_CheckAddressRange(pdev, lun, hmsc->scsi_blk_addr, hmsc->scsi_blk_len) < 0)
ARM GAS  C:\Users\gx\AppData\Local\Temp\ccExyhW8.s 			page 27


 493:Middlewares/ST/STM32_USB_Device_Library/Class/MSC/Src/usbd_msc_scsi.c ****     {
 494:Middlewares/ST/STM32_USB_Device_Library/Class/MSC/Src/usbd_msc_scsi.c ****       return -1; /* error */
 495:Middlewares/ST/STM32_USB_Device_Library/Class/MSC/Src/usbd_msc_scsi.c ****     }
 496:Middlewares/ST/STM32_USB_Device_Library/Class/MSC/Src/usbd_msc_scsi.c ****     
 497:Middlewares/ST/STM32_USB_Device_Library/Class/MSC/Src/usbd_msc_scsi.c ****     hmsc->bot_state = USBD_BOT_DATA_IN;
 498:Middlewares/ST/STM32_USB_Device_Library/Class/MSC/Src/usbd_msc_scsi.c ****     hmsc->scsi_blk_addr *= hmsc->scsi_blk_size;
 499:Middlewares/ST/STM32_USB_Device_Library/Class/MSC/Src/usbd_msc_scsi.c ****     hmsc->scsi_blk_len  *= hmsc->scsi_blk_size;
 500:Middlewares/ST/STM32_USB_Device_Library/Class/MSC/Src/usbd_msc_scsi.c ****     
 501:Middlewares/ST/STM32_USB_Device_Library/Class/MSC/Src/usbd_msc_scsi.c ****     /* cases 4,5 : Hi <> Dn */
 502:Middlewares/ST/STM32_USB_Device_Library/Class/MSC/Src/usbd_msc_scsi.c ****     if (hmsc->cbw.dDataLength != hmsc->scsi_blk_len)
 503:Middlewares/ST/STM32_USB_Device_Library/Class/MSC/Src/usbd_msc_scsi.c ****     {
 504:Middlewares/ST/STM32_USB_Device_Library/Class/MSC/Src/usbd_msc_scsi.c ****       SCSI_SenseCode(pdev,
 505:Middlewares/ST/STM32_USB_Device_Library/Class/MSC/Src/usbd_msc_scsi.c ****                      hmsc->cbw.bLUN, 
 506:Middlewares/ST/STM32_USB_Device_Library/Class/MSC/Src/usbd_msc_scsi.c ****                      ILLEGAL_REQUEST, 
 507:Middlewares/ST/STM32_USB_Device_Library/Class/MSC/Src/usbd_msc_scsi.c ****                      INVALID_CDB);
 508:Middlewares/ST/STM32_USB_Device_Library/Class/MSC/Src/usbd_msc_scsi.c ****       return -1;
 509:Middlewares/ST/STM32_USB_Device_Library/Class/MSC/Src/usbd_msc_scsi.c ****     }
 510:Middlewares/ST/STM32_USB_Device_Library/Class/MSC/Src/usbd_msc_scsi.c ****   }
 511:Middlewares/ST/STM32_USB_Device_Library/Class/MSC/Src/usbd_msc_scsi.c ****   hmsc->bot_data_length = MSC_MEDIA_PACKET;  
 512:Middlewares/ST/STM32_USB_Device_Library/Class/MSC/Src/usbd_msc_scsi.c ****   
 513:Middlewares/ST/STM32_USB_Device_Library/Class/MSC/Src/usbd_msc_scsi.c ****   return SCSI_ProcessRead(pdev, lun);
 514:Middlewares/ST/STM32_USB_Device_Library/Class/MSC/Src/usbd_msc_scsi.c **** }
 515:Middlewares/ST/STM32_USB_Device_Library/Class/MSC/Src/usbd_msc_scsi.c **** 
 516:Middlewares/ST/STM32_USB_Device_Library/Class/MSC/Src/usbd_msc_scsi.c **** /**
 517:Middlewares/ST/STM32_USB_Device_Library/Class/MSC/Src/usbd_msc_scsi.c **** * @brief  SCSI_Write10
 518:Middlewares/ST/STM32_USB_Device_Library/Class/MSC/Src/usbd_msc_scsi.c **** *         Process Write10 command
 519:Middlewares/ST/STM32_USB_Device_Library/Class/MSC/Src/usbd_msc_scsi.c **** * @param  lun: Logical unit number
 520:Middlewares/ST/STM32_USB_Device_Library/Class/MSC/Src/usbd_msc_scsi.c **** * @param  params: Command parameters
 521:Middlewares/ST/STM32_USB_Device_Library/Class/MSC/Src/usbd_msc_scsi.c **** * @retval status
 522:Middlewares/ST/STM32_USB_Device_Library/Class/MSC/Src/usbd_msc_scsi.c **** */
 523:Middlewares/ST/STM32_USB_Device_Library/Class/MSC/Src/usbd_msc_scsi.c **** 
 524:Middlewares/ST/STM32_USB_Device_Library/Class/MSC/Src/usbd_msc_scsi.c **** static int8_t SCSI_Write10 (USBD_HandleTypeDef  *pdev, uint8_t lun , uint8_t *params)
 525:Middlewares/ST/STM32_USB_Device_Library/Class/MSC/Src/usbd_msc_scsi.c **** {
 526:Middlewares/ST/STM32_USB_Device_Library/Class/MSC/Src/usbd_msc_scsi.c ****   USBD_MSC_BOT_HandleTypeDef  *hmsc = (USBD_MSC_BOT_HandleTypeDef*) pdev->pClassData; 
 527:Middlewares/ST/STM32_USB_Device_Library/Class/MSC/Src/usbd_msc_scsi.c ****   
 528:Middlewares/ST/STM32_USB_Device_Library/Class/MSC/Src/usbd_msc_scsi.c ****   if (hmsc->bot_state == USBD_BOT_IDLE) /* Idle */
 529:Middlewares/ST/STM32_USB_Device_Library/Class/MSC/Src/usbd_msc_scsi.c ****   {
 530:Middlewares/ST/STM32_USB_Device_Library/Class/MSC/Src/usbd_msc_scsi.c ****     
 531:Middlewares/ST/STM32_USB_Device_Library/Class/MSC/Src/usbd_msc_scsi.c ****     /* case 8 : Hi <> Do */
 532:Middlewares/ST/STM32_USB_Device_Library/Class/MSC/Src/usbd_msc_scsi.c ****     
 533:Middlewares/ST/STM32_USB_Device_Library/Class/MSC/Src/usbd_msc_scsi.c ****     if ((hmsc->cbw.bmFlags & 0x80) == 0x80)
 534:Middlewares/ST/STM32_USB_Device_Library/Class/MSC/Src/usbd_msc_scsi.c ****     {
 535:Middlewares/ST/STM32_USB_Device_Library/Class/MSC/Src/usbd_msc_scsi.c ****       SCSI_SenseCode(pdev,
 536:Middlewares/ST/STM32_USB_Device_Library/Class/MSC/Src/usbd_msc_scsi.c ****                      hmsc->cbw.bLUN, 
 537:Middlewares/ST/STM32_USB_Device_Library/Class/MSC/Src/usbd_msc_scsi.c ****                      ILLEGAL_REQUEST, 
 538:Middlewares/ST/STM32_USB_Device_Library/Class/MSC/Src/usbd_msc_scsi.c ****                      INVALID_CDB);
 539:Middlewares/ST/STM32_USB_Device_Library/Class/MSC/Src/usbd_msc_scsi.c ****       return -1;
 540:Middlewares/ST/STM32_USB_Device_Library/Class/MSC/Src/usbd_msc_scsi.c ****     }
 541:Middlewares/ST/STM32_USB_Device_Library/Class/MSC/Src/usbd_msc_scsi.c ****     
 542:Middlewares/ST/STM32_USB_Device_Library/Class/MSC/Src/usbd_msc_scsi.c ****     /* Check whether Media is ready */
 543:Middlewares/ST/STM32_USB_Device_Library/Class/MSC/Src/usbd_msc_scsi.c ****     if(((USBD_StorageTypeDef *)pdev->pUserData)->IsReady(lun) !=0 )
 544:Middlewares/ST/STM32_USB_Device_Library/Class/MSC/Src/usbd_msc_scsi.c ****     {
 545:Middlewares/ST/STM32_USB_Device_Library/Class/MSC/Src/usbd_msc_scsi.c ****       SCSI_SenseCode(pdev,
 546:Middlewares/ST/STM32_USB_Device_Library/Class/MSC/Src/usbd_msc_scsi.c ****                      lun,
 547:Middlewares/ST/STM32_USB_Device_Library/Class/MSC/Src/usbd_msc_scsi.c ****                      NOT_READY, 
 548:Middlewares/ST/STM32_USB_Device_Library/Class/MSC/Src/usbd_msc_scsi.c ****                      MEDIUM_NOT_PRESENT);
 549:Middlewares/ST/STM32_USB_Device_Library/Class/MSC/Src/usbd_msc_scsi.c ****       return -1;
ARM GAS  C:\Users\gx\AppData\Local\Temp\ccExyhW8.s 			page 28


 550:Middlewares/ST/STM32_USB_Device_Library/Class/MSC/Src/usbd_msc_scsi.c ****     } 
 551:Middlewares/ST/STM32_USB_Device_Library/Class/MSC/Src/usbd_msc_scsi.c ****     
 552:Middlewares/ST/STM32_USB_Device_Library/Class/MSC/Src/usbd_msc_scsi.c ****     /* Check If media is write-protected */
 553:Middlewares/ST/STM32_USB_Device_Library/Class/MSC/Src/usbd_msc_scsi.c ****     if(((USBD_StorageTypeDef *)pdev->pUserData)->IsWriteProtected(lun) !=0 )
 554:Middlewares/ST/STM32_USB_Device_Library/Class/MSC/Src/usbd_msc_scsi.c ****     {
 555:Middlewares/ST/STM32_USB_Device_Library/Class/MSC/Src/usbd_msc_scsi.c ****       SCSI_SenseCode(pdev,
 556:Middlewares/ST/STM32_USB_Device_Library/Class/MSC/Src/usbd_msc_scsi.c ****                      lun,
 557:Middlewares/ST/STM32_USB_Device_Library/Class/MSC/Src/usbd_msc_scsi.c ****                      NOT_READY, 
 558:Middlewares/ST/STM32_USB_Device_Library/Class/MSC/Src/usbd_msc_scsi.c ****                      WRITE_PROTECTED);
 559:Middlewares/ST/STM32_USB_Device_Library/Class/MSC/Src/usbd_msc_scsi.c ****       return -1;
 560:Middlewares/ST/STM32_USB_Device_Library/Class/MSC/Src/usbd_msc_scsi.c ****     } 
 561:Middlewares/ST/STM32_USB_Device_Library/Class/MSC/Src/usbd_msc_scsi.c ****     
 562:Middlewares/ST/STM32_USB_Device_Library/Class/MSC/Src/usbd_msc_scsi.c ****     
 563:Middlewares/ST/STM32_USB_Device_Library/Class/MSC/Src/usbd_msc_scsi.c ****     hmsc->scsi_blk_addr = (params[2] << 24) | \
 564:Middlewares/ST/STM32_USB_Device_Library/Class/MSC/Src/usbd_msc_scsi.c ****       (params[3] << 16) | \
 565:Middlewares/ST/STM32_USB_Device_Library/Class/MSC/Src/usbd_msc_scsi.c ****         (params[4] <<  8) | \
 566:Middlewares/ST/STM32_USB_Device_Library/Class/MSC/Src/usbd_msc_scsi.c ****           params[5];
 567:Middlewares/ST/STM32_USB_Device_Library/Class/MSC/Src/usbd_msc_scsi.c ****     hmsc->scsi_blk_len = (params[7] <<  8) | \
 568:Middlewares/ST/STM32_USB_Device_Library/Class/MSC/Src/usbd_msc_scsi.c ****       params[8];  
 569:Middlewares/ST/STM32_USB_Device_Library/Class/MSC/Src/usbd_msc_scsi.c ****     
 570:Middlewares/ST/STM32_USB_Device_Library/Class/MSC/Src/usbd_msc_scsi.c ****     /* check if LBA address is in the right range */
 571:Middlewares/ST/STM32_USB_Device_Library/Class/MSC/Src/usbd_msc_scsi.c ****     if(SCSI_CheckAddressRange(pdev,
 572:Middlewares/ST/STM32_USB_Device_Library/Class/MSC/Src/usbd_msc_scsi.c ****                               lun,
 573:Middlewares/ST/STM32_USB_Device_Library/Class/MSC/Src/usbd_msc_scsi.c ****                               hmsc->scsi_blk_addr,
 574:Middlewares/ST/STM32_USB_Device_Library/Class/MSC/Src/usbd_msc_scsi.c ****                               hmsc->scsi_blk_len) < 0)
 575:Middlewares/ST/STM32_USB_Device_Library/Class/MSC/Src/usbd_msc_scsi.c ****     {
 576:Middlewares/ST/STM32_USB_Device_Library/Class/MSC/Src/usbd_msc_scsi.c ****       return -1; /* error */      
 577:Middlewares/ST/STM32_USB_Device_Library/Class/MSC/Src/usbd_msc_scsi.c ****     }
 578:Middlewares/ST/STM32_USB_Device_Library/Class/MSC/Src/usbd_msc_scsi.c ****     
 579:Middlewares/ST/STM32_USB_Device_Library/Class/MSC/Src/usbd_msc_scsi.c ****     hmsc->scsi_blk_addr *= hmsc->scsi_blk_size;
 580:Middlewares/ST/STM32_USB_Device_Library/Class/MSC/Src/usbd_msc_scsi.c ****     hmsc->scsi_blk_len  *= hmsc->scsi_blk_size;
 581:Middlewares/ST/STM32_USB_Device_Library/Class/MSC/Src/usbd_msc_scsi.c ****     
 582:Middlewares/ST/STM32_USB_Device_Library/Class/MSC/Src/usbd_msc_scsi.c ****     /* cases 3,11,13 : Hn,Ho <> D0 */
 583:Middlewares/ST/STM32_USB_Device_Library/Class/MSC/Src/usbd_msc_scsi.c ****     if (hmsc->cbw.dDataLength != hmsc->scsi_blk_len)
 584:Middlewares/ST/STM32_USB_Device_Library/Class/MSC/Src/usbd_msc_scsi.c ****     {
 585:Middlewares/ST/STM32_USB_Device_Library/Class/MSC/Src/usbd_msc_scsi.c ****       SCSI_SenseCode(pdev,
 586:Middlewares/ST/STM32_USB_Device_Library/Class/MSC/Src/usbd_msc_scsi.c ****                      hmsc->cbw.bLUN, 
 587:Middlewares/ST/STM32_USB_Device_Library/Class/MSC/Src/usbd_msc_scsi.c ****                      ILLEGAL_REQUEST, 
 588:Middlewares/ST/STM32_USB_Device_Library/Class/MSC/Src/usbd_msc_scsi.c ****                      INVALID_CDB);
 589:Middlewares/ST/STM32_USB_Device_Library/Class/MSC/Src/usbd_msc_scsi.c ****       return -1;
 590:Middlewares/ST/STM32_USB_Device_Library/Class/MSC/Src/usbd_msc_scsi.c ****     }
 591:Middlewares/ST/STM32_USB_Device_Library/Class/MSC/Src/usbd_msc_scsi.c ****     
 592:Middlewares/ST/STM32_USB_Device_Library/Class/MSC/Src/usbd_msc_scsi.c ****     /* Prepare EP to receive first data packet */
 593:Middlewares/ST/STM32_USB_Device_Library/Class/MSC/Src/usbd_msc_scsi.c ****     hmsc->bot_state = USBD_BOT_DATA_OUT;  
 594:Middlewares/ST/STM32_USB_Device_Library/Class/MSC/Src/usbd_msc_scsi.c ****     USBD_LL_PrepareReceive (pdev,
 595:Middlewares/ST/STM32_USB_Device_Library/Class/MSC/Src/usbd_msc_scsi.c ****                       MSC_EPOUT_ADDR,
 596:Middlewares/ST/STM32_USB_Device_Library/Class/MSC/Src/usbd_msc_scsi.c ****                       hmsc->bot_data, 
 597:Middlewares/ST/STM32_USB_Device_Library/Class/MSC/Src/usbd_msc_scsi.c ****                       MIN (hmsc->scsi_blk_len, MSC_MEDIA_PACKET));  
 598:Middlewares/ST/STM32_USB_Device_Library/Class/MSC/Src/usbd_msc_scsi.c ****   }
 599:Middlewares/ST/STM32_USB_Device_Library/Class/MSC/Src/usbd_msc_scsi.c ****   else /* Write Process ongoing */
 600:Middlewares/ST/STM32_USB_Device_Library/Class/MSC/Src/usbd_msc_scsi.c ****   {
 601:Middlewares/ST/STM32_USB_Device_Library/Class/MSC/Src/usbd_msc_scsi.c ****     return SCSI_ProcessWrite(pdev, lun);
 602:Middlewares/ST/STM32_USB_Device_Library/Class/MSC/Src/usbd_msc_scsi.c ****   }
 603:Middlewares/ST/STM32_USB_Device_Library/Class/MSC/Src/usbd_msc_scsi.c ****   return 0;
 604:Middlewares/ST/STM32_USB_Device_Library/Class/MSC/Src/usbd_msc_scsi.c **** }
 605:Middlewares/ST/STM32_USB_Device_Library/Class/MSC/Src/usbd_msc_scsi.c **** 
 606:Middlewares/ST/STM32_USB_Device_Library/Class/MSC/Src/usbd_msc_scsi.c **** 
ARM GAS  C:\Users\gx\AppData\Local\Temp\ccExyhW8.s 			page 29


 607:Middlewares/ST/STM32_USB_Device_Library/Class/MSC/Src/usbd_msc_scsi.c **** /**
 608:Middlewares/ST/STM32_USB_Device_Library/Class/MSC/Src/usbd_msc_scsi.c **** * @brief  SCSI_Verify10
 609:Middlewares/ST/STM32_USB_Device_Library/Class/MSC/Src/usbd_msc_scsi.c **** *         Process Verify10 command
 610:Middlewares/ST/STM32_USB_Device_Library/Class/MSC/Src/usbd_msc_scsi.c **** * @param  lun: Logical unit number
 611:Middlewares/ST/STM32_USB_Device_Library/Class/MSC/Src/usbd_msc_scsi.c **** * @param  params: Command parameters
 612:Middlewares/ST/STM32_USB_Device_Library/Class/MSC/Src/usbd_msc_scsi.c **** * @retval status
 613:Middlewares/ST/STM32_USB_Device_Library/Class/MSC/Src/usbd_msc_scsi.c **** */
 614:Middlewares/ST/STM32_USB_Device_Library/Class/MSC/Src/usbd_msc_scsi.c **** 
 615:Middlewares/ST/STM32_USB_Device_Library/Class/MSC/Src/usbd_msc_scsi.c **** static int8_t SCSI_Verify10(USBD_HandleTypeDef  *pdev, uint8_t lun , uint8_t *params)
 616:Middlewares/ST/STM32_USB_Device_Library/Class/MSC/Src/usbd_msc_scsi.c **** {
 617:Middlewares/ST/STM32_USB_Device_Library/Class/MSC/Src/usbd_msc_scsi.c ****   USBD_MSC_BOT_HandleTypeDef  *hmsc = (USBD_MSC_BOT_HandleTypeDef*) pdev->pClassData; 
 618:Middlewares/ST/STM32_USB_Device_Library/Class/MSC/Src/usbd_msc_scsi.c ****   
 619:Middlewares/ST/STM32_USB_Device_Library/Class/MSC/Src/usbd_msc_scsi.c ****   if ((params[1]& 0x02) == 0x02) 
 620:Middlewares/ST/STM32_USB_Device_Library/Class/MSC/Src/usbd_msc_scsi.c ****   {
 621:Middlewares/ST/STM32_USB_Device_Library/Class/MSC/Src/usbd_msc_scsi.c ****     SCSI_SenseCode (pdev,
 622:Middlewares/ST/STM32_USB_Device_Library/Class/MSC/Src/usbd_msc_scsi.c ****                     lun, 
 623:Middlewares/ST/STM32_USB_Device_Library/Class/MSC/Src/usbd_msc_scsi.c ****                     ILLEGAL_REQUEST, 
 624:Middlewares/ST/STM32_USB_Device_Library/Class/MSC/Src/usbd_msc_scsi.c ****                     INVALID_FIELED_IN_COMMAND);
 625:Middlewares/ST/STM32_USB_Device_Library/Class/MSC/Src/usbd_msc_scsi.c ****     return -1; /* Error, Verify Mode Not supported*/
 626:Middlewares/ST/STM32_USB_Device_Library/Class/MSC/Src/usbd_msc_scsi.c ****   }
 627:Middlewares/ST/STM32_USB_Device_Library/Class/MSC/Src/usbd_msc_scsi.c ****   
 628:Middlewares/ST/STM32_USB_Device_Library/Class/MSC/Src/usbd_msc_scsi.c ****   if(SCSI_CheckAddressRange(pdev,
 629:Middlewares/ST/STM32_USB_Device_Library/Class/MSC/Src/usbd_msc_scsi.c ****                             lun, 
 630:Middlewares/ST/STM32_USB_Device_Library/Class/MSC/Src/usbd_msc_scsi.c ****                             hmsc->scsi_blk_addr, 
 631:Middlewares/ST/STM32_USB_Device_Library/Class/MSC/Src/usbd_msc_scsi.c ****                             hmsc->scsi_blk_len) < 0)
 632:Middlewares/ST/STM32_USB_Device_Library/Class/MSC/Src/usbd_msc_scsi.c ****   {
 633:Middlewares/ST/STM32_USB_Device_Library/Class/MSC/Src/usbd_msc_scsi.c ****     return -1; /* error */      
 634:Middlewares/ST/STM32_USB_Device_Library/Class/MSC/Src/usbd_msc_scsi.c ****   }
 635:Middlewares/ST/STM32_USB_Device_Library/Class/MSC/Src/usbd_msc_scsi.c ****   hmsc->bot_data_length = 0;
 636:Middlewares/ST/STM32_USB_Device_Library/Class/MSC/Src/usbd_msc_scsi.c ****   return 0;
 637:Middlewares/ST/STM32_USB_Device_Library/Class/MSC/Src/usbd_msc_scsi.c **** }
 638:Middlewares/ST/STM32_USB_Device_Library/Class/MSC/Src/usbd_msc_scsi.c **** 
 639:Middlewares/ST/STM32_USB_Device_Library/Class/MSC/Src/usbd_msc_scsi.c **** /**
 640:Middlewares/ST/STM32_USB_Device_Library/Class/MSC/Src/usbd_msc_scsi.c **** * @brief  SCSI_CheckAddressRange
 641:Middlewares/ST/STM32_USB_Device_Library/Class/MSC/Src/usbd_msc_scsi.c **** *         Check address range
 642:Middlewares/ST/STM32_USB_Device_Library/Class/MSC/Src/usbd_msc_scsi.c **** * @param  lun: Logical unit number
 643:Middlewares/ST/STM32_USB_Device_Library/Class/MSC/Src/usbd_msc_scsi.c **** * @param  blk_offset: first block address
 644:Middlewares/ST/STM32_USB_Device_Library/Class/MSC/Src/usbd_msc_scsi.c **** * @param  blk_nbr: number of block to be processed
 645:Middlewares/ST/STM32_USB_Device_Library/Class/MSC/Src/usbd_msc_scsi.c **** * @retval status
 646:Middlewares/ST/STM32_USB_Device_Library/Class/MSC/Src/usbd_msc_scsi.c **** */
 647:Middlewares/ST/STM32_USB_Device_Library/Class/MSC/Src/usbd_msc_scsi.c **** static int8_t SCSI_CheckAddressRange (USBD_HandleTypeDef  *pdev, uint8_t lun , uint32_t blk_offset 
 648:Middlewares/ST/STM32_USB_Device_Library/Class/MSC/Src/usbd_msc_scsi.c **** {
 851              		.loc 1 648 1 is_stmt 1 view -0
 852              		.cfi_startproc
 853              		@ args = 0, pretend = 0, frame = 0
 854              		@ frame_needed = 0, uses_anonymous_args = 0
 855              		.loc 1 648 1 is_stmt 0 view .LVU279
 856 0000 10B5     		push	{r4, lr}
 857              	.LCFI14:
 858              		.cfi_def_cfa_offset 8
 859              		.cfi_offset 4, -8
 860              		.cfi_offset 14, -4
 649:Middlewares/ST/STM32_USB_Device_Library/Class/MSC/Src/usbd_msc_scsi.c ****   USBD_MSC_BOT_HandleTypeDef  *hmsc = (USBD_MSC_BOT_HandleTypeDef*) pdev->pClassData; 
 861              		.loc 1 649 3 is_stmt 1 view .LVU280
 862              		.loc 1 649 32 is_stmt 0 view .LVU281
 863 0002 D0F81842 		ldr	r4, [r0, #536]
 864              	.LVL74:
ARM GAS  C:\Users\gx\AppData\Local\Temp\ccExyhW8.s 			page 30


 650:Middlewares/ST/STM32_USB_Device_Library/Class/MSC/Src/usbd_msc_scsi.c ****   
 651:Middlewares/ST/STM32_USB_Device_Library/Class/MSC/Src/usbd_msc_scsi.c ****   if ((blk_offset + blk_nbr) > hmsc->scsi_blk_nbr )
 865              		.loc 1 651 3 is_stmt 1 view .LVU282
 866              		.loc 1 651 19 is_stmt 0 view .LVU283
 867 0006 1344     		add	r3, r3, r2
 868              	.LVL75:
 869              		.loc 1 651 36 view .LVU284
 870 0008 D4F86022 		ldr	r2, [r4, #608]
 871              	.LVL76:
 872              		.loc 1 651 6 view .LVU285
 873 000c 9342     		cmp	r3, r2
 874 000e 01D8     		bhi	.L57
 652:Middlewares/ST/STM32_USB_Device_Library/Class/MSC/Src/usbd_msc_scsi.c ****   {
 653:Middlewares/ST/STM32_USB_Device_Library/Class/MSC/Src/usbd_msc_scsi.c ****     SCSI_SenseCode(pdev,
 654:Middlewares/ST/STM32_USB_Device_Library/Class/MSC/Src/usbd_msc_scsi.c ****                    lun, 
 655:Middlewares/ST/STM32_USB_Device_Library/Class/MSC/Src/usbd_msc_scsi.c ****                    ILLEGAL_REQUEST, 
 656:Middlewares/ST/STM32_USB_Device_Library/Class/MSC/Src/usbd_msc_scsi.c ****                    ADDRESS_OUT_OF_RANGE);
 657:Middlewares/ST/STM32_USB_Device_Library/Class/MSC/Src/usbd_msc_scsi.c ****     return -1;
 658:Middlewares/ST/STM32_USB_Device_Library/Class/MSC/Src/usbd_msc_scsi.c ****   }
 659:Middlewares/ST/STM32_USB_Device_Library/Class/MSC/Src/usbd_msc_scsi.c ****   return 0;
 875              		.loc 1 659 10 view .LVU286
 876 0010 0020     		movs	r0, #0
 877              	.LVL77:
 878              	.L54:
 660:Middlewares/ST/STM32_USB_Device_Library/Class/MSC/Src/usbd_msc_scsi.c **** }
 879              		.loc 1 660 1 view .LVU287
 880 0012 10BD     		pop	{r4, pc}
 881              	.LVL78:
 882              	.L57:
 653:Middlewares/ST/STM32_USB_Device_Library/Class/MSC/Src/usbd_msc_scsi.c ****                    lun, 
 883              		.loc 1 653 5 is_stmt 1 view .LVU288
 884 0014 2123     		movs	r3, #33
 885 0016 0522     		movs	r2, #5
 886 0018 FFF7FEFF 		bl	SCSI_SenseCode
 887              	.LVL79:
 657:Middlewares/ST/STM32_USB_Device_Library/Class/MSC/Src/usbd_msc_scsi.c ****   }
 888              		.loc 1 657 5 view .LVU289
 657:Middlewares/ST/STM32_USB_Device_Library/Class/MSC/Src/usbd_msc_scsi.c ****   }
 889              		.loc 1 657 12 is_stmt 0 view .LVU290
 890 001c 4FF0FF30 		mov	r0, #-1
 891 0020 F7E7     		b	.L54
 892              		.cfi_endproc
 893              	.LFE139:
 895              		.section	.text.SCSI_ProcessRead,"ax",%progbits
 896              		.align	1
 897              		.syntax unified
 898              		.thumb
 899              		.thumb_func
 900              		.fpu fpv4-sp-d16
 902              	SCSI_ProcessRead:
 903              	.LVL80:
 904              	.LFB140:
 661:Middlewares/ST/STM32_USB_Device_Library/Class/MSC/Src/usbd_msc_scsi.c **** 
 662:Middlewares/ST/STM32_USB_Device_Library/Class/MSC/Src/usbd_msc_scsi.c **** /**
 663:Middlewares/ST/STM32_USB_Device_Library/Class/MSC/Src/usbd_msc_scsi.c **** * @brief  SCSI_ProcessRead
 664:Middlewares/ST/STM32_USB_Device_Library/Class/MSC/Src/usbd_msc_scsi.c **** *         Handle Read Process
 665:Middlewares/ST/STM32_USB_Device_Library/Class/MSC/Src/usbd_msc_scsi.c **** * @param  lun: Logical unit number
ARM GAS  C:\Users\gx\AppData\Local\Temp\ccExyhW8.s 			page 31


 666:Middlewares/ST/STM32_USB_Device_Library/Class/MSC/Src/usbd_msc_scsi.c **** * @retval status
 667:Middlewares/ST/STM32_USB_Device_Library/Class/MSC/Src/usbd_msc_scsi.c **** */
 668:Middlewares/ST/STM32_USB_Device_Library/Class/MSC/Src/usbd_msc_scsi.c **** static int8_t SCSI_ProcessRead (USBD_HandleTypeDef  *pdev, uint8_t lun)
 669:Middlewares/ST/STM32_USB_Device_Library/Class/MSC/Src/usbd_msc_scsi.c **** {
 905              		.loc 1 669 1 is_stmt 1 view -0
 906              		.cfi_startproc
 907              		@ args = 0, pretend = 0, frame = 0
 908              		@ frame_needed = 0, uses_anonymous_args = 0
 909              		.loc 1 669 1 is_stmt 0 view .LVU292
 910 0000 2DE9F843 		push	{r3, r4, r5, r6, r7, r8, r9, lr}
 911              	.LCFI15:
 912              		.cfi_def_cfa_offset 32
 913              		.cfi_offset 3, -32
 914              		.cfi_offset 4, -28
 915              		.cfi_offset 5, -24
 916              		.cfi_offset 6, -20
 917              		.cfi_offset 7, -16
 918              		.cfi_offset 8, -12
 919              		.cfi_offset 9, -8
 920              		.cfi_offset 14, -4
 921 0004 0646     		mov	r6, r0
 922 0006 0F46     		mov	r7, r1
 670:Middlewares/ST/STM32_USB_Device_Library/Class/MSC/Src/usbd_msc_scsi.c ****   USBD_MSC_BOT_HandleTypeDef  *hmsc = (USBD_MSC_BOT_HandleTypeDef*)pdev->pClassData;   
 923              		.loc 1 670 3 is_stmt 1 view .LVU293
 924              		.loc 1 670 32 is_stmt 0 view .LVU294
 925 0008 D0F81842 		ldr	r4, [r0, #536]
 926              	.LVL81:
 671:Middlewares/ST/STM32_USB_Device_Library/Class/MSC/Src/usbd_msc_scsi.c ****   uint32_t len;
 927              		.loc 1 671 3 is_stmt 1 view .LVU295
 672:Middlewares/ST/STM32_USB_Device_Library/Class/MSC/Src/usbd_msc_scsi.c ****   
 673:Middlewares/ST/STM32_USB_Device_Library/Class/MSC/Src/usbd_msc_scsi.c ****   len = MIN(hmsc->scsi_blk_len , MSC_MEDIA_PACKET); 
 928              		.loc 1 673 3 view .LVU296
 929              		.loc 1 673 9 is_stmt 0 view .LVU297
 930 000c D4F86852 		ldr	r5, [r4, #616]
 931              		.loc 1 673 7 view .LVU298
 932 0010 B5F5007F 		cmp	r5, #512
 933 0014 28BF     		it	cs
 934 0016 4FF40075 		movcs	r5, #512
 935              	.LVL82:
 674:Middlewares/ST/STM32_USB_Device_Library/Class/MSC/Src/usbd_msc_scsi.c ****   
 675:Middlewares/ST/STM32_USB_Device_Library/Class/MSC/Src/usbd_msc_scsi.c ****   if( ((USBD_StorageTypeDef *)pdev->pUserData)->Read(lun ,
 936              		.loc 1 675 3 is_stmt 1 view .LVU299
 937              		.loc 1 675 35 is_stmt 0 view .LVU300
 938 001a D0F81C32 		ldr	r3, [r0, #540]
 939              		.loc 1 675 47 view .LVU301
 940 001e D3F81090 		ldr	r9, [r3, #16]
 676:Middlewares/ST/STM32_USB_Device_Library/Class/MSC/Src/usbd_msc_scsi.c ****                               hmsc->bot_data, 
 941              		.loc 1 676 35 view .LVU302
 942 0022 04F10C08 		add	r8, r4, #12
 677:Middlewares/ST/STM32_USB_Device_Library/Class/MSC/Src/usbd_msc_scsi.c ****                               hmsc->scsi_blk_addr / hmsc->scsi_blk_size, 
 943              		.loc 1 677 35 view .LVU303
 944 0026 D4F86412 		ldr	r1, [r4, #612]
 945              	.LVL83:
 946              		.loc 1 677 57 view .LVU304
 947 002a B4F85E22 		ldrh	r2, [r4, #606]
 678:Middlewares/ST/STM32_USB_Device_Library/Class/MSC/Src/usbd_msc_scsi.c ****                               len / hmsc->scsi_blk_size) < 0)
 948              		.loc 1 678 35 view .LVU305
ARM GAS  C:\Users\gx\AppData\Local\Temp\ccExyhW8.s 			page 32


 949 002e B5FBF2F3 		udiv	r3, r5, r2
 675:Middlewares/ST/STM32_USB_Device_Library/Class/MSC/Src/usbd_msc_scsi.c ****                               hmsc->bot_data, 
 950              		.loc 1 675 8 view .LVU306
 951 0032 9BB2     		uxth	r3, r3
 952 0034 B1FBF2F2 		udiv	r2, r1, r2
 953 0038 4146     		mov	r1, r8
 954 003a 3846     		mov	r0, r7
 955              	.LVL84:
 675:Middlewares/ST/STM32_USB_Device_Library/Class/MSC/Src/usbd_msc_scsi.c ****                               hmsc->bot_data, 
 956              		.loc 1 675 8 view .LVU307
 957 003c C847     		blx	r9
 958              	.LVL85:
 675:Middlewares/ST/STM32_USB_Device_Library/Class/MSC/Src/usbd_msc_scsi.c ****                               hmsc->bot_data, 
 959              		.loc 1 675 5 view .LVU308
 960 003e 0028     		cmp	r0, #0
 961 0040 19DB     		blt	.L63
 679:Middlewares/ST/STM32_USB_Device_Library/Class/MSC/Src/usbd_msc_scsi.c ****   {
 680:Middlewares/ST/STM32_USB_Device_Library/Class/MSC/Src/usbd_msc_scsi.c ****     
 681:Middlewares/ST/STM32_USB_Device_Library/Class/MSC/Src/usbd_msc_scsi.c ****     SCSI_SenseCode(pdev,
 682:Middlewares/ST/STM32_USB_Device_Library/Class/MSC/Src/usbd_msc_scsi.c ****                    lun, 
 683:Middlewares/ST/STM32_USB_Device_Library/Class/MSC/Src/usbd_msc_scsi.c ****                    HARDWARE_ERROR, 
 684:Middlewares/ST/STM32_USB_Device_Library/Class/MSC/Src/usbd_msc_scsi.c ****                    UNRECOVERED_READ_ERROR);
 685:Middlewares/ST/STM32_USB_Device_Library/Class/MSC/Src/usbd_msc_scsi.c ****     return -1; 
 686:Middlewares/ST/STM32_USB_Device_Library/Class/MSC/Src/usbd_msc_scsi.c ****   }
 687:Middlewares/ST/STM32_USB_Device_Library/Class/MSC/Src/usbd_msc_scsi.c ****   
 688:Middlewares/ST/STM32_USB_Device_Library/Class/MSC/Src/usbd_msc_scsi.c ****   
 689:Middlewares/ST/STM32_USB_Device_Library/Class/MSC/Src/usbd_msc_scsi.c ****   USBD_LL_Transmit (pdev, 
 962              		.loc 1 689 3 is_stmt 1 view .LVU309
 963 0042 ABB2     		uxth	r3, r5
 964 0044 4246     		mov	r2, r8
 965 0046 8121     		movs	r1, #129
 966 0048 3046     		mov	r0, r6
 967 004a FFF7FEFF 		bl	USBD_LL_Transmit
 968              	.LVL86:
 690:Middlewares/ST/STM32_USB_Device_Library/Class/MSC/Src/usbd_msc_scsi.c ****              MSC_EPIN_ADDR,
 691:Middlewares/ST/STM32_USB_Device_Library/Class/MSC/Src/usbd_msc_scsi.c ****              hmsc->bot_data,
 692:Middlewares/ST/STM32_USB_Device_Library/Class/MSC/Src/usbd_msc_scsi.c ****              len);
 693:Middlewares/ST/STM32_USB_Device_Library/Class/MSC/Src/usbd_msc_scsi.c ****   
 694:Middlewares/ST/STM32_USB_Device_Library/Class/MSC/Src/usbd_msc_scsi.c ****   
 695:Middlewares/ST/STM32_USB_Device_Library/Class/MSC/Src/usbd_msc_scsi.c ****   hmsc->scsi_blk_addr   += len; 
 969              		.loc 1 695 3 view .LVU310
 970              		.loc 1 695 25 is_stmt 0 view .LVU311
 971 004e D4F86432 		ldr	r3, [r4, #612]
 972 0052 2B44     		add	r3, r3, r5
 973 0054 C4F86432 		str	r3, [r4, #612]
 696:Middlewares/ST/STM32_USB_Device_Library/Class/MSC/Src/usbd_msc_scsi.c ****   hmsc->scsi_blk_len    -= len;  
 974              		.loc 1 696 3 is_stmt 1 view .LVU312
 975              		.loc 1 696 25 is_stmt 0 view .LVU313
 976 0058 D4F86832 		ldr	r3, [r4, #616]
 977 005c 5B1B     		subs	r3, r3, r5
 978 005e C4F86832 		str	r3, [r4, #616]
 697:Middlewares/ST/STM32_USB_Device_Library/Class/MSC/Src/usbd_msc_scsi.c ****   
 698:Middlewares/ST/STM32_USB_Device_Library/Class/MSC/Src/usbd_msc_scsi.c ****   /* case 6 : Hi = Di */
 699:Middlewares/ST/STM32_USB_Device_Library/Class/MSC/Src/usbd_msc_scsi.c ****   hmsc->csw.dDataResidue -= len;
 979              		.loc 1 699 3 is_stmt 1 view .LVU314
 980              		.loc 1 699 26 is_stmt 0 view .LVU315
 981 0062 D4F83422 		ldr	r2, [r4, #564]
ARM GAS  C:\Users\gx\AppData\Local\Temp\ccExyhW8.s 			page 33


 982 0066 551B     		subs	r5, r2, r5
 983              	.LVL87:
 984              		.loc 1 699 26 view .LVU316
 985 0068 C4F83452 		str	r5, [r4, #564]
 700:Middlewares/ST/STM32_USB_Device_Library/Class/MSC/Src/usbd_msc_scsi.c ****   
 701:Middlewares/ST/STM32_USB_Device_Library/Class/MSC/Src/usbd_msc_scsi.c ****   if (hmsc->scsi_blk_len == 0)
 986              		.loc 1 701 3 is_stmt 1 view .LVU317
 987              		.loc 1 701 6 is_stmt 0 view .LVU318
 988 006c 63B9     		cbnz	r3, .L61
 702:Middlewares/ST/STM32_USB_Device_Library/Class/MSC/Src/usbd_msc_scsi.c ****   {
 703:Middlewares/ST/STM32_USB_Device_Library/Class/MSC/Src/usbd_msc_scsi.c ****     hmsc->bot_state = USBD_BOT_LAST_DATA_IN;
 989              		.loc 1 703 5 is_stmt 1 view .LVU319
 990              		.loc 1 703 21 is_stmt 0 view .LVU320
 991 006e 0323     		movs	r3, #3
 992 0070 2372     		strb	r3, [r4, #8]
 704:Middlewares/ST/STM32_USB_Device_Library/Class/MSC/Src/usbd_msc_scsi.c ****   }
 705:Middlewares/ST/STM32_USB_Device_Library/Class/MSC/Src/usbd_msc_scsi.c ****   return 0;
 993              		.loc 1 705 10 view .LVU321
 994 0072 0020     		movs	r0, #0
 995 0074 09E0     		b	.L60
 996              	.LVL88:
 997              	.L63:
 681:Middlewares/ST/STM32_USB_Device_Library/Class/MSC/Src/usbd_msc_scsi.c ****                    lun, 
 998              		.loc 1 681 5 is_stmt 1 view .LVU322
 999 0076 1123     		movs	r3, #17
 1000 0078 0422     		movs	r2, #4
 1001 007a 3946     		mov	r1, r7
 1002 007c 3046     		mov	r0, r6
 1003 007e FFF7FEFF 		bl	SCSI_SenseCode
 1004              	.LVL89:
 685:Middlewares/ST/STM32_USB_Device_Library/Class/MSC/Src/usbd_msc_scsi.c ****   }
 1005              		.loc 1 685 5 view .LVU323
 685:Middlewares/ST/STM32_USB_Device_Library/Class/MSC/Src/usbd_msc_scsi.c ****   }
 1006              		.loc 1 685 12 is_stmt 0 view .LVU324
 1007 0082 4FF0FF30 		mov	r0, #-1
 1008 0086 00E0     		b	.L60
 1009              	.LVL90:
 1010              	.L61:
 1011              		.loc 1 705 10 view .LVU325
 1012 0088 0020     		movs	r0, #0
 1013              	.L60:
 706:Middlewares/ST/STM32_USB_Device_Library/Class/MSC/Src/usbd_msc_scsi.c **** }
 1014              		.loc 1 706 1 view .LVU326
 1015 008a BDE8F883 		pop	{r3, r4, r5, r6, r7, r8, r9, pc}
 1016              		.loc 1 706 1 view .LVU327
 1017              		.cfi_endproc
 1018              	.LFE140:
 1020              		.section	.text.SCSI_Read10,"ax",%progbits
 1021              		.align	1
 1022              		.syntax unified
 1023              		.thumb
 1024              		.thumb_func
 1025              		.fpu fpv4-sp-d16
 1027              	SCSI_Read10:
 1028              	.LVL91:
 1029              	.LFB136:
 456:Middlewares/ST/STM32_USB_Device_Library/Class/MSC/Src/usbd_msc_scsi.c ****   USBD_MSC_BOT_HandleTypeDef  *hmsc = (USBD_MSC_BOT_HandleTypeDef*) pdev->pClassData; 
ARM GAS  C:\Users\gx\AppData\Local\Temp\ccExyhW8.s 			page 34


 1030              		.loc 1 456 1 is_stmt 1 view -0
 1031              		.cfi_startproc
 1032              		@ args = 0, pretend = 0, frame = 0
 1033              		@ frame_needed = 0, uses_anonymous_args = 0
 456:Middlewares/ST/STM32_USB_Device_Library/Class/MSC/Src/usbd_msc_scsi.c ****   USBD_MSC_BOT_HandleTypeDef  *hmsc = (USBD_MSC_BOT_HandleTypeDef*) pdev->pClassData; 
 1034              		.loc 1 456 1 is_stmt 0 view .LVU329
 1035 0000 F8B5     		push	{r3, r4, r5, r6, r7, lr}
 1036              	.LCFI16:
 1037              		.cfi_def_cfa_offset 24
 1038              		.cfi_offset 3, -24
 1039              		.cfi_offset 4, -20
 1040              		.cfi_offset 5, -16
 1041              		.cfi_offset 6, -12
 1042              		.cfi_offset 7, -8
 1043              		.cfi_offset 14, -4
 1044 0002 0646     		mov	r6, r0
 1045 0004 0F46     		mov	r7, r1
 457:Middlewares/ST/STM32_USB_Device_Library/Class/MSC/Src/usbd_msc_scsi.c ****   
 1046              		.loc 1 457 3 is_stmt 1 view .LVU330
 457:Middlewares/ST/STM32_USB_Device_Library/Class/MSC/Src/usbd_msc_scsi.c ****   
 1047              		.loc 1 457 32 is_stmt 0 view .LVU331
 1048 0006 D0F81842 		ldr	r4, [r0, #536]
 1049              	.LVL92:
 459:Middlewares/ST/STM32_USB_Device_Library/Class/MSC/Src/usbd_msc_scsi.c ****   {
 1050              		.loc 1 459 3 is_stmt 1 view .LVU332
 459:Middlewares/ST/STM32_USB_Device_Library/Class/MSC/Src/usbd_msc_scsi.c ****   {
 1051              		.loc 1 459 10 is_stmt 0 view .LVU333
 1052 000a 237A     		ldrb	r3, [r4, #8]	@ zero_extendqisi2
 459:Middlewares/ST/STM32_USB_Device_Library/Class/MSC/Src/usbd_msc_scsi.c ****   {
 1053              		.loc 1 459 5 view .LVU334
 1054 000c 002B     		cmp	r3, #0
 1055 000e 37D1     		bne	.L65
 1056 0010 1546     		mov	r5, r2
 464:Middlewares/ST/STM32_USB_Device_Library/Class/MSC/Src/usbd_msc_scsi.c ****     {
 1057              		.loc 1 464 5 is_stmt 1 view .LVU335
 464:Middlewares/ST/STM32_USB_Device_Library/Class/MSC/Src/usbd_msc_scsi.c ****     {
 1058              		.loc 1 464 36 is_stmt 0 view .LVU336
 1059 0012 94F91832 		ldrsb	r3, [r4, #536]
 464:Middlewares/ST/STM32_USB_Device_Library/Class/MSC/Src/usbd_msc_scsi.c ****     {
 1060              		.loc 1 464 8 view .LVU337
 1061 0016 002B     		cmp	r3, #0
 1062 0018 3ADA     		bge	.L71
 473:Middlewares/ST/STM32_USB_Device_Library/Class/MSC/Src/usbd_msc_scsi.c ****     {
 1063              		.loc 1 473 5 is_stmt 1 view .LVU338
 473:Middlewares/ST/STM32_USB_Device_Library/Class/MSC/Src/usbd_msc_scsi.c ****     {
 1064              		.loc 1 473 36 is_stmt 0 view .LVU339
 1065 001a D0F81C32 		ldr	r3, [r0, #540]
 473:Middlewares/ST/STM32_USB_Device_Library/Class/MSC/Src/usbd_msc_scsi.c ****     {
 1066              		.loc 1 473 48 view .LVU340
 1067 001e 9B68     		ldr	r3, [r3, #8]
 473:Middlewares/ST/STM32_USB_Device_Library/Class/MSC/Src/usbd_msc_scsi.c ****     {
 1068              		.loc 1 473 9 view .LVU341
 1069 0020 0846     		mov	r0, r1
 1070              	.LVL93:
 473:Middlewares/ST/STM32_USB_Device_Library/Class/MSC/Src/usbd_msc_scsi.c ****     {
 1071              		.loc 1 473 9 view .LVU342
 1072 0022 9847     		blx	r3
ARM GAS  C:\Users\gx\AppData\Local\Temp\ccExyhW8.s 			page 35


 1073              	.LVL94:
 473:Middlewares/ST/STM32_USB_Device_Library/Class/MSC/Src/usbd_msc_scsi.c ****     {
 1074              		.loc 1 473 7 view .LVU343
 1075 0024 0028     		cmp	r0, #0
 1076 0026 3CD1     		bne	.L72
 482:Middlewares/ST/STM32_USB_Device_Library/Class/MSC/Src/usbd_msc_scsi.c ****       (params[3] << 16) | \
 1077              		.loc 1 482 5 is_stmt 1 view .LVU344
 482:Middlewares/ST/STM32_USB_Device_Library/Class/MSC/Src/usbd_msc_scsi.c ****       (params[3] << 16) | \
 1078              		.loc 1 482 34 is_stmt 0 view .LVU345
 1079 0028 AA78     		ldrb	r2, [r5, #2]	@ zero_extendqisi2
 483:Middlewares/ST/STM32_USB_Device_Library/Class/MSC/Src/usbd_msc_scsi.c ****         (params[4] <<  8) | \
 1080              		.loc 1 483 14 view .LVU346
 1081 002a EB78     		ldrb	r3, [r5, #3]	@ zero_extendqisi2
 483:Middlewares/ST/STM32_USB_Device_Library/Class/MSC/Src/usbd_msc_scsi.c ****         (params[4] <<  8) | \
 1082              		.loc 1 483 18 view .LVU347
 1083 002c 1B04     		lsls	r3, r3, #16
 482:Middlewares/ST/STM32_USB_Device_Library/Class/MSC/Src/usbd_msc_scsi.c ****       (params[3] << 16) | \
 1084              		.loc 1 482 45 view .LVU348
 1085 002e 43EA0263 		orr	r3, r3, r2, lsl #24
 484:Middlewares/ST/STM32_USB_Device_Library/Class/MSC/Src/usbd_msc_scsi.c ****           params[5];
 1086              		.loc 1 484 16 view .LVU349
 1087 0032 2A79     		ldrb	r2, [r5, #4]	@ zero_extendqisi2
 483:Middlewares/ST/STM32_USB_Device_Library/Class/MSC/Src/usbd_msc_scsi.c ****         (params[4] <<  8) | \
 1088              		.loc 1 483 25 view .LVU350
 1089 0034 43EA0223 		orr	r3, r3, r2, lsl #8
 485:Middlewares/ST/STM32_USB_Device_Library/Class/MSC/Src/usbd_msc_scsi.c ****     
 1090              		.loc 1 485 17 view .LVU351
 1091 0038 6A79     		ldrb	r2, [r5, #5]	@ zero_extendqisi2
 484:Middlewares/ST/STM32_USB_Device_Library/Class/MSC/Src/usbd_msc_scsi.c ****           params[5];
 1092              		.loc 1 484 27 view .LVU352
 1093 003a 1A43     		orrs	r2, r2, r3
 482:Middlewares/ST/STM32_USB_Device_Library/Class/MSC/Src/usbd_msc_scsi.c ****       (params[3] << 16) | \
 1094              		.loc 1 482 25 view .LVU353
 1095 003c C4F86422 		str	r2, [r4, #612]
 487:Middlewares/ST/STM32_USB_Device_Library/Class/MSC/Src/usbd_msc_scsi.c ****       params[8];  
 1096              		.loc 1 487 5 is_stmt 1 view .LVU354
 487:Middlewares/ST/STM32_USB_Device_Library/Class/MSC/Src/usbd_msc_scsi.c ****       params[8];  
 1097              		.loc 1 487 34 is_stmt 0 view .LVU355
 1098 0040 E979     		ldrb	r1, [r5, #7]	@ zero_extendqisi2
 488:Middlewares/ST/STM32_USB_Device_Library/Class/MSC/Src/usbd_msc_scsi.c ****     
 1099              		.loc 1 488 13 view .LVU356
 1100 0042 2B7A     		ldrb	r3, [r5, #8]	@ zero_extendqisi2
 487:Middlewares/ST/STM32_USB_Device_Library/Class/MSC/Src/usbd_msc_scsi.c ****       params[8];  
 1101              		.loc 1 487 45 view .LVU357
 1102 0044 43EA0123 		orr	r3, r3, r1, lsl #8
 487:Middlewares/ST/STM32_USB_Device_Library/Class/MSC/Src/usbd_msc_scsi.c ****       params[8];  
 1103              		.loc 1 487 24 view .LVU358
 1104 0048 C4F86832 		str	r3, [r4, #616]
 492:Middlewares/ST/STM32_USB_Device_Library/Class/MSC/Src/usbd_msc_scsi.c ****     {
 1105              		.loc 1 492 5 is_stmt 1 view .LVU359
 492:Middlewares/ST/STM32_USB_Device_Library/Class/MSC/Src/usbd_msc_scsi.c ****     {
 1106              		.loc 1 492 9 is_stmt 0 view .LVU360
 1107 004c 3946     		mov	r1, r7
 1108 004e 3046     		mov	r0, r6
 1109 0050 FFF7FEFF 		bl	SCSI_CheckAddressRange
 1110              	.LVL95:
 492:Middlewares/ST/STM32_USB_Device_Library/Class/MSC/Src/usbd_msc_scsi.c ****     {
ARM GAS  C:\Users\gx\AppData\Local\Temp\ccExyhW8.s 			page 36


 1111              		.loc 1 492 7 view .LVU361
 1112 0054 0028     		cmp	r0, #0
 1113 0056 37DB     		blt	.L69
 497:Middlewares/ST/STM32_USB_Device_Library/Class/MSC/Src/usbd_msc_scsi.c ****     hmsc->scsi_blk_addr *= hmsc->scsi_blk_size;
 1114              		.loc 1 497 5 is_stmt 1 view .LVU362
 497:Middlewares/ST/STM32_USB_Device_Library/Class/MSC/Src/usbd_msc_scsi.c ****     hmsc->scsi_blk_addr *= hmsc->scsi_blk_size;
 1115              		.loc 1 497 21 is_stmt 0 view .LVU363
 1116 0058 0223     		movs	r3, #2
 1117 005a 2372     		strb	r3, [r4, #8]
 498:Middlewares/ST/STM32_USB_Device_Library/Class/MSC/Src/usbd_msc_scsi.c ****     hmsc->scsi_blk_len  *= hmsc->scsi_blk_size;
 1118              		.loc 1 498 5 is_stmt 1 view .LVU364
 498:Middlewares/ST/STM32_USB_Device_Library/Class/MSC/Src/usbd_msc_scsi.c ****     hmsc->scsi_blk_len  *= hmsc->scsi_blk_size;
 1119              		.loc 1 498 32 is_stmt 0 view .LVU365
 1120 005c B4F85E12 		ldrh	r1, [r4, #606]
 498:Middlewares/ST/STM32_USB_Device_Library/Class/MSC/Src/usbd_msc_scsi.c ****     hmsc->scsi_blk_len  *= hmsc->scsi_blk_size;
 1121              		.loc 1 498 25 view .LVU366
 1122 0060 D4F86422 		ldr	r2, [r4, #612]
 1123 0064 01FB02F2 		mul	r2, r1, r2
 1124 0068 C4F86422 		str	r2, [r4, #612]
 499:Middlewares/ST/STM32_USB_Device_Library/Class/MSC/Src/usbd_msc_scsi.c ****     
 1125              		.loc 1 499 5 is_stmt 1 view .LVU367
 499:Middlewares/ST/STM32_USB_Device_Library/Class/MSC/Src/usbd_msc_scsi.c ****     
 1126              		.loc 1 499 25 is_stmt 0 view .LVU368
 1127 006c D4F86832 		ldr	r3, [r4, #616]
 1128 0070 03FB01F3 		mul	r3, r3, r1
 1129 0074 C4F86832 		str	r3, [r4, #616]
 502:Middlewares/ST/STM32_USB_Device_Library/Class/MSC/Src/usbd_msc_scsi.c ****     {
 1130              		.loc 1 502 5 is_stmt 1 view .LVU369
 502:Middlewares/ST/STM32_USB_Device_Library/Class/MSC/Src/usbd_msc_scsi.c ****     {
 1131              		.loc 1 502 18 is_stmt 0 view .LVU370
 1132 0078 D4F81422 		ldr	r2, [r4, #532]
 502:Middlewares/ST/STM32_USB_Device_Library/Class/MSC/Src/usbd_msc_scsi.c ****     {
 1133              		.loc 1 502 8 view .LVU371
 1134 007c 9342     		cmp	r3, r2
 1135 007e 19D1     		bne	.L73
 1136              	.LVL96:
 1137              	.L65:
 511:Middlewares/ST/STM32_USB_Device_Library/Class/MSC/Src/usbd_msc_scsi.c ****   
 1138              		.loc 1 511 3 is_stmt 1 view .LVU372
 511:Middlewares/ST/STM32_USB_Device_Library/Class/MSC/Src/usbd_msc_scsi.c ****   
 1139              		.loc 1 511 25 is_stmt 0 view .LVU373
 1140 0080 4FF40073 		mov	r3, #512
 1141 0084 6381     		strh	r3, [r4, #10]	@ movhi
 513:Middlewares/ST/STM32_USB_Device_Library/Class/MSC/Src/usbd_msc_scsi.c **** }
 1142              		.loc 1 513 3 is_stmt 1 view .LVU374
 513:Middlewares/ST/STM32_USB_Device_Library/Class/MSC/Src/usbd_msc_scsi.c **** }
 1143              		.loc 1 513 10 is_stmt 0 view .LVU375
 1144 0086 3946     		mov	r1, r7
 1145 0088 3046     		mov	r0, r6
 1146 008a FFF7FEFF 		bl	SCSI_ProcessRead
 1147              	.LVL97:
 1148              	.L67:
 514:Middlewares/ST/STM32_USB_Device_Library/Class/MSC/Src/usbd_msc_scsi.c **** 
 1149              		.loc 1 514 1 view .LVU376
 1150 008e F8BD     		pop	{r3, r4, r5, r6, r7, pc}
 1151              	.LVL98:
 1152              	.L71:
ARM GAS  C:\Users\gx\AppData\Local\Temp\ccExyhW8.s 			page 37


 466:Middlewares/ST/STM32_USB_Device_Library/Class/MSC/Src/usbd_msc_scsi.c ****                      hmsc->cbw.bLUN, 
 1153              		.loc 1 466 7 is_stmt 1 view .LVU377
 1154 0090 2023     		movs	r3, #32
 1155 0092 0522     		movs	r2, #5
 1156              	.LVL99:
 466:Middlewares/ST/STM32_USB_Device_Library/Class/MSC/Src/usbd_msc_scsi.c ****                      hmsc->cbw.bLUN, 
 1157              		.loc 1 466 7 is_stmt 0 view .LVU378
 1158 0094 94F81912 		ldrb	r1, [r4, #537]	@ zero_extendqisi2
 1159              	.LVL100:
 466:Middlewares/ST/STM32_USB_Device_Library/Class/MSC/Src/usbd_msc_scsi.c ****                      hmsc->cbw.bLUN, 
 1160              		.loc 1 466 7 view .LVU379
 1161 0098 FFF7FEFF 		bl	SCSI_SenseCode
 1162              	.LVL101:
 470:Middlewares/ST/STM32_USB_Device_Library/Class/MSC/Src/usbd_msc_scsi.c ****     }    
 1163              		.loc 1 470 7 is_stmt 1 view .LVU380
 470:Middlewares/ST/STM32_USB_Device_Library/Class/MSC/Src/usbd_msc_scsi.c ****     }    
 1164              		.loc 1 470 14 is_stmt 0 view .LVU381
 1165 009c 4FF0FF30 		mov	r0, #-1
 1166 00a0 F5E7     		b	.L67
 1167              	.L72:
 475:Middlewares/ST/STM32_USB_Device_Library/Class/MSC/Src/usbd_msc_scsi.c ****                      lun,
 1168              		.loc 1 475 7 is_stmt 1 view .LVU382
 1169 00a2 3A23     		movs	r3, #58
 1170 00a4 0222     		movs	r2, #2
 1171 00a6 3946     		mov	r1, r7
 1172 00a8 3046     		mov	r0, r6
 1173 00aa FFF7FEFF 		bl	SCSI_SenseCode
 1174              	.LVL102:
 479:Middlewares/ST/STM32_USB_Device_Library/Class/MSC/Src/usbd_msc_scsi.c ****     } 
 1175              		.loc 1 479 7 view .LVU383
 479:Middlewares/ST/STM32_USB_Device_Library/Class/MSC/Src/usbd_msc_scsi.c ****     } 
 1176              		.loc 1 479 14 is_stmt 0 view .LVU384
 1177 00ae 4FF0FF30 		mov	r0, #-1
 1178 00b2 ECE7     		b	.L67
 1179              	.L73:
 504:Middlewares/ST/STM32_USB_Device_Library/Class/MSC/Src/usbd_msc_scsi.c ****                      hmsc->cbw.bLUN, 
 1180              		.loc 1 504 7 is_stmt 1 view .LVU385
 1181 00b4 2023     		movs	r3, #32
 1182 00b6 0522     		movs	r2, #5
 1183 00b8 94F81912 		ldrb	r1, [r4, #537]	@ zero_extendqisi2
 1184 00bc 3046     		mov	r0, r6
 1185 00be FFF7FEFF 		bl	SCSI_SenseCode
 1186              	.LVL103:
 508:Middlewares/ST/STM32_USB_Device_Library/Class/MSC/Src/usbd_msc_scsi.c ****     }
 1187              		.loc 1 508 7 view .LVU386
 508:Middlewares/ST/STM32_USB_Device_Library/Class/MSC/Src/usbd_msc_scsi.c ****     }
 1188              		.loc 1 508 14 is_stmt 0 view .LVU387
 1189 00c2 4FF0FF30 		mov	r0, #-1
 1190 00c6 E2E7     		b	.L67
 1191              	.L69:
 494:Middlewares/ST/STM32_USB_Device_Library/Class/MSC/Src/usbd_msc_scsi.c ****     }
 1192              		.loc 1 494 14 view .LVU388
 1193 00c8 4FF0FF30 		mov	r0, #-1
 1194 00cc DFE7     		b	.L67
 1195              		.cfi_endproc
 1196              	.LFE136:
 1198              		.section	.text.SCSI_ProcessWrite,"ax",%progbits
ARM GAS  C:\Users\gx\AppData\Local\Temp\ccExyhW8.s 			page 38


 1199              		.align	1
 1200              		.syntax unified
 1201              		.thumb
 1202              		.thumb_func
 1203              		.fpu fpv4-sp-d16
 1205              	SCSI_ProcessWrite:
 1206              	.LVL104:
 1207              	.LFB141:
 707:Middlewares/ST/STM32_USB_Device_Library/Class/MSC/Src/usbd_msc_scsi.c **** 
 708:Middlewares/ST/STM32_USB_Device_Library/Class/MSC/Src/usbd_msc_scsi.c **** /**
 709:Middlewares/ST/STM32_USB_Device_Library/Class/MSC/Src/usbd_msc_scsi.c **** * @brief  SCSI_ProcessWrite
 710:Middlewares/ST/STM32_USB_Device_Library/Class/MSC/Src/usbd_msc_scsi.c **** *         Handle Write Process
 711:Middlewares/ST/STM32_USB_Device_Library/Class/MSC/Src/usbd_msc_scsi.c **** * @param  lun: Logical unit number
 712:Middlewares/ST/STM32_USB_Device_Library/Class/MSC/Src/usbd_msc_scsi.c **** * @retval status
 713:Middlewares/ST/STM32_USB_Device_Library/Class/MSC/Src/usbd_msc_scsi.c **** */
 714:Middlewares/ST/STM32_USB_Device_Library/Class/MSC/Src/usbd_msc_scsi.c **** 
 715:Middlewares/ST/STM32_USB_Device_Library/Class/MSC/Src/usbd_msc_scsi.c **** static int8_t SCSI_ProcessWrite (USBD_HandleTypeDef  *pdev, uint8_t lun)
 716:Middlewares/ST/STM32_USB_Device_Library/Class/MSC/Src/usbd_msc_scsi.c **** {
 1208              		.loc 1 716 1 is_stmt 1 view -0
 1209              		.cfi_startproc
 1210              		@ args = 0, pretend = 0, frame = 0
 1211              		@ frame_needed = 0, uses_anonymous_args = 0
 1212              		.loc 1 716 1 is_stmt 0 view .LVU390
 1213 0000 2DE9F843 		push	{r3, r4, r5, r6, r7, r8, r9, lr}
 1214              	.LCFI17:
 1215              		.cfi_def_cfa_offset 32
 1216              		.cfi_offset 3, -32
 1217              		.cfi_offset 4, -28
 1218              		.cfi_offset 5, -24
 1219              		.cfi_offset 6, -20
 1220              		.cfi_offset 7, -16
 1221              		.cfi_offset 8, -12
 1222              		.cfi_offset 9, -8
 1223              		.cfi_offset 14, -4
 1224 0004 0646     		mov	r6, r0
 1225 0006 0F46     		mov	r7, r1
 717:Middlewares/ST/STM32_USB_Device_Library/Class/MSC/Src/usbd_msc_scsi.c ****   uint32_t len;
 1226              		.loc 1 717 3 is_stmt 1 view .LVU391
 718:Middlewares/ST/STM32_USB_Device_Library/Class/MSC/Src/usbd_msc_scsi.c ****   USBD_MSC_BOT_HandleTypeDef  *hmsc = (USBD_MSC_BOT_HandleTypeDef*) pdev->pClassData; 
 1227              		.loc 1 718 3 view .LVU392
 1228              		.loc 1 718 32 is_stmt 0 view .LVU393
 1229 0008 D0F81842 		ldr	r4, [r0, #536]
 1230              	.LVL105:
 719:Middlewares/ST/STM32_USB_Device_Library/Class/MSC/Src/usbd_msc_scsi.c ****   
 720:Middlewares/ST/STM32_USB_Device_Library/Class/MSC/Src/usbd_msc_scsi.c ****   len = MIN(hmsc->scsi_blk_len , MSC_MEDIA_PACKET); 
 1231              		.loc 1 720 3 is_stmt 1 view .LVU394
 1232              		.loc 1 720 9 is_stmt 0 view .LVU395
 1233 000c D4F86852 		ldr	r5, [r4, #616]
 1234              		.loc 1 720 7 view .LVU396
 1235 0010 B5F5007F 		cmp	r5, #512
 1236 0014 28BF     		it	cs
 1237 0016 4FF40075 		movcs	r5, #512
 1238              	.LVL106:
 721:Middlewares/ST/STM32_USB_Device_Library/Class/MSC/Src/usbd_msc_scsi.c ****   
 722:Middlewares/ST/STM32_USB_Device_Library/Class/MSC/Src/usbd_msc_scsi.c ****   if(((USBD_StorageTypeDef *)pdev->pUserData)->Write(lun ,
 1239              		.loc 1 722 3 is_stmt 1 view .LVU397
 1240              		.loc 1 722 34 is_stmt 0 view .LVU398
ARM GAS  C:\Users\gx\AppData\Local\Temp\ccExyhW8.s 			page 39


 1241 001a D0F81C32 		ldr	r3, [r0, #540]
 1242              		.loc 1 722 46 view .LVU399
 1243 001e D3F81490 		ldr	r9, [r3, #20]
 723:Middlewares/ST/STM32_USB_Device_Library/Class/MSC/Src/usbd_msc_scsi.c ****                               hmsc->bot_data, 
 1244              		.loc 1 723 35 view .LVU400
 1245 0022 04F10C08 		add	r8, r4, #12
 724:Middlewares/ST/STM32_USB_Device_Library/Class/MSC/Src/usbd_msc_scsi.c ****                               hmsc->scsi_blk_addr / hmsc->scsi_blk_size, 
 1246              		.loc 1 724 35 view .LVU401
 1247 0026 D4F86412 		ldr	r1, [r4, #612]
 1248              	.LVL107:
 1249              		.loc 1 724 57 view .LVU402
 1250 002a B4F85E22 		ldrh	r2, [r4, #606]
 725:Middlewares/ST/STM32_USB_Device_Library/Class/MSC/Src/usbd_msc_scsi.c ****                               len / hmsc->scsi_blk_size) < 0)
 1251              		.loc 1 725 35 view .LVU403
 1252 002e B5FBF2F3 		udiv	r3, r5, r2
 722:Middlewares/ST/STM32_USB_Device_Library/Class/MSC/Src/usbd_msc_scsi.c ****                               hmsc->bot_data, 
 1253              		.loc 1 722 7 view .LVU404
 1254 0032 9BB2     		uxth	r3, r3
 1255 0034 B1FBF2F2 		udiv	r2, r1, r2
 1256 0038 4146     		mov	r1, r8
 1257 003a 3846     		mov	r0, r7
 1258              	.LVL108:
 722:Middlewares/ST/STM32_USB_Device_Library/Class/MSC/Src/usbd_msc_scsi.c ****                               hmsc->bot_data, 
 1259              		.loc 1 722 7 view .LVU405
 1260 003c C847     		blx	r9
 1261              	.LVL109:
 722:Middlewares/ST/STM32_USB_Device_Library/Class/MSC/Src/usbd_msc_scsi.c ****                               hmsc->bot_data, 
 1262              		.loc 1 722 5 view .LVU406
 1263 003e 0028     		cmp	r0, #0
 1264 0040 16DB     		blt	.L79
 726:Middlewares/ST/STM32_USB_Device_Library/Class/MSC/Src/usbd_msc_scsi.c ****   {
 727:Middlewares/ST/STM32_USB_Device_Library/Class/MSC/Src/usbd_msc_scsi.c ****     SCSI_SenseCode(pdev,
 728:Middlewares/ST/STM32_USB_Device_Library/Class/MSC/Src/usbd_msc_scsi.c ****                    lun, 
 729:Middlewares/ST/STM32_USB_Device_Library/Class/MSC/Src/usbd_msc_scsi.c ****                    HARDWARE_ERROR, 
 730:Middlewares/ST/STM32_USB_Device_Library/Class/MSC/Src/usbd_msc_scsi.c ****                    WRITE_FAULT);     
 731:Middlewares/ST/STM32_USB_Device_Library/Class/MSC/Src/usbd_msc_scsi.c ****     return -1; 
 732:Middlewares/ST/STM32_USB_Device_Library/Class/MSC/Src/usbd_msc_scsi.c ****   }
 733:Middlewares/ST/STM32_USB_Device_Library/Class/MSC/Src/usbd_msc_scsi.c ****   
 734:Middlewares/ST/STM32_USB_Device_Library/Class/MSC/Src/usbd_msc_scsi.c ****   
 735:Middlewares/ST/STM32_USB_Device_Library/Class/MSC/Src/usbd_msc_scsi.c ****   hmsc->scsi_blk_addr  += len; 
 1265              		.loc 1 735 3 is_stmt 1 view .LVU407
 1266              		.loc 1 735 24 is_stmt 0 view .LVU408
 1267 0042 D4F86432 		ldr	r3, [r4, #612]
 1268 0046 2B44     		add	r3, r3, r5
 1269 0048 C4F86432 		str	r3, [r4, #612]
 736:Middlewares/ST/STM32_USB_Device_Library/Class/MSC/Src/usbd_msc_scsi.c ****   hmsc->scsi_blk_len   -= len; 
 1270              		.loc 1 736 3 is_stmt 1 view .LVU409
 1271              		.loc 1 736 24 is_stmt 0 view .LVU410
 1272 004c D4F86832 		ldr	r3, [r4, #616]
 1273 0050 5B1B     		subs	r3, r3, r5
 1274 0052 C4F86832 		str	r3, [r4, #616]
 737:Middlewares/ST/STM32_USB_Device_Library/Class/MSC/Src/usbd_msc_scsi.c ****   
 738:Middlewares/ST/STM32_USB_Device_Library/Class/MSC/Src/usbd_msc_scsi.c ****   /* case 12 : Ho = Do */
 739:Middlewares/ST/STM32_USB_Device_Library/Class/MSC/Src/usbd_msc_scsi.c ****   hmsc->csw.dDataResidue -= len;
 1275              		.loc 1 739 3 is_stmt 1 view .LVU411
 1276              		.loc 1 739 26 is_stmt 0 view .LVU412
 1277 0056 D4F83422 		ldr	r2, [r4, #564]
ARM GAS  C:\Users\gx\AppData\Local\Temp\ccExyhW8.s 			page 40


 1278 005a 551B     		subs	r5, r2, r5
 1279              	.LVL110:
 1280              		.loc 1 739 26 view .LVU413
 1281 005c C4F83452 		str	r5, [r4, #564]
 740:Middlewares/ST/STM32_USB_Device_Library/Class/MSC/Src/usbd_msc_scsi.c ****   
 741:Middlewares/ST/STM32_USB_Device_Library/Class/MSC/Src/usbd_msc_scsi.c ****   if (hmsc->scsi_blk_len == 0)
 1282              		.loc 1 741 3 is_stmt 1 view .LVU414
 1283              		.loc 1 741 6 is_stmt 0 view .LVU415
 1284 0060 7BB9     		cbnz	r3, .L77
 742:Middlewares/ST/STM32_USB_Device_Library/Class/MSC/Src/usbd_msc_scsi.c ****   {
 743:Middlewares/ST/STM32_USB_Device_Library/Class/MSC/Src/usbd_msc_scsi.c ****     MSC_BOT_SendCSW (pdev, USBD_CSW_CMD_PASSED);
 1285              		.loc 1 743 5 is_stmt 1 view .LVU416
 1286 0062 0021     		movs	r1, #0
 1287 0064 3046     		mov	r0, r6
 1288 0066 FFF7FEFF 		bl	MSC_BOT_SendCSW
 1289              	.LVL111:
 744:Middlewares/ST/STM32_USB_Device_Library/Class/MSC/Src/usbd_msc_scsi.c ****   }
 745:Middlewares/ST/STM32_USB_Device_Library/Class/MSC/Src/usbd_msc_scsi.c ****   else
 746:Middlewares/ST/STM32_USB_Device_Library/Class/MSC/Src/usbd_msc_scsi.c ****   {
 747:Middlewares/ST/STM32_USB_Device_Library/Class/MSC/Src/usbd_msc_scsi.c ****     /* Prepare EP to Receive next packet */
 748:Middlewares/ST/STM32_USB_Device_Library/Class/MSC/Src/usbd_msc_scsi.c ****     USBD_LL_PrepareReceive (pdev,
 749:Middlewares/ST/STM32_USB_Device_Library/Class/MSC/Src/usbd_msc_scsi.c ****                             MSC_EPOUT_ADDR,
 750:Middlewares/ST/STM32_USB_Device_Library/Class/MSC/Src/usbd_msc_scsi.c ****                             hmsc->bot_data, 
 751:Middlewares/ST/STM32_USB_Device_Library/Class/MSC/Src/usbd_msc_scsi.c ****                             MIN (hmsc->scsi_blk_len, MSC_MEDIA_PACKET)); 
 752:Middlewares/ST/STM32_USB_Device_Library/Class/MSC/Src/usbd_msc_scsi.c ****   }
 753:Middlewares/ST/STM32_USB_Device_Library/Class/MSC/Src/usbd_msc_scsi.c ****   
 754:Middlewares/ST/STM32_USB_Device_Library/Class/MSC/Src/usbd_msc_scsi.c ****   return 0;
 1290              		.loc 1 754 10 is_stmt 0 view .LVU417
 1291 006a 0020     		movs	r0, #0
 1292              	.L76:
 755:Middlewares/ST/STM32_USB_Device_Library/Class/MSC/Src/usbd_msc_scsi.c **** }
 1293              		.loc 1 755 1 view .LVU418
 1294 006c BDE8F883 		pop	{r3, r4, r5, r6, r7, r8, r9, pc}
 1295              	.LVL112:
 1296              	.L79:
 727:Middlewares/ST/STM32_USB_Device_Library/Class/MSC/Src/usbd_msc_scsi.c ****                    lun, 
 1297              		.loc 1 727 5 is_stmt 1 view .LVU419
 1298 0070 0323     		movs	r3, #3
 1299 0072 0422     		movs	r2, #4
 1300 0074 3946     		mov	r1, r7
 1301 0076 3046     		mov	r0, r6
 1302 0078 FFF7FEFF 		bl	SCSI_SenseCode
 1303              	.LVL113:
 731:Middlewares/ST/STM32_USB_Device_Library/Class/MSC/Src/usbd_msc_scsi.c ****   }
 1304              		.loc 1 731 5 view .LVU420
 731:Middlewares/ST/STM32_USB_Device_Library/Class/MSC/Src/usbd_msc_scsi.c ****   }
 1305              		.loc 1 731 12 is_stmt 0 view .LVU421
 1306 007c 4FF0FF30 		mov	r0, #-1
 1307 0080 F4E7     		b	.L76
 1308              	.LVL114:
 1309              	.L77:
 748:Middlewares/ST/STM32_USB_Device_Library/Class/MSC/Src/usbd_msc_scsi.c ****                             MSC_EPOUT_ADDR,
 1310              		.loc 1 748 5 is_stmt 1 view .LVU422
 751:Middlewares/ST/STM32_USB_Device_Library/Class/MSC/Src/usbd_msc_scsi.c ****   }
 1311              		.loc 1 751 29 is_stmt 0 view .LVU423
 1312 0082 B3F5007F 		cmp	r3, #512
 1313 0086 28BF     		it	cs
ARM GAS  C:\Users\gx\AppData\Local\Temp\ccExyhW8.s 			page 41


 1314 0088 4FF40073 		movcs	r3, #512
 748:Middlewares/ST/STM32_USB_Device_Library/Class/MSC/Src/usbd_msc_scsi.c ****                             MSC_EPOUT_ADDR,
 1315              		.loc 1 748 5 view .LVU424
 1316 008c 9BB2     		uxth	r3, r3
 1317 008e 4246     		mov	r2, r8
 1318 0090 0121     		movs	r1, #1
 1319 0092 3046     		mov	r0, r6
 1320 0094 FFF7FEFF 		bl	USBD_LL_PrepareReceive
 1321              	.LVL115:
 754:Middlewares/ST/STM32_USB_Device_Library/Class/MSC/Src/usbd_msc_scsi.c **** }
 1322              		.loc 1 754 10 view .LVU425
 1323 0098 0020     		movs	r0, #0
 1324 009a E7E7     		b	.L76
 1325              		.cfi_endproc
 1326              	.LFE141:
 1328              		.section	.text.SCSI_Write10,"ax",%progbits
 1329              		.align	1
 1330              		.syntax unified
 1331              		.thumb
 1332              		.thumb_func
 1333              		.fpu fpv4-sp-d16
 1335              	SCSI_Write10:
 1336              	.LVL116:
 1337              	.LFB137:
 525:Middlewares/ST/STM32_USB_Device_Library/Class/MSC/Src/usbd_msc_scsi.c ****   USBD_MSC_BOT_HandleTypeDef  *hmsc = (USBD_MSC_BOT_HandleTypeDef*) pdev->pClassData; 
 1338              		.loc 1 525 1 is_stmt 1 view -0
 1339              		.cfi_startproc
 1340              		@ args = 0, pretend = 0, frame = 0
 1341              		@ frame_needed = 0, uses_anonymous_args = 0
 525:Middlewares/ST/STM32_USB_Device_Library/Class/MSC/Src/usbd_msc_scsi.c ****   USBD_MSC_BOT_HandleTypeDef  *hmsc = (USBD_MSC_BOT_HandleTypeDef*) pdev->pClassData; 
 1342              		.loc 1 525 1 is_stmt 0 view .LVU427
 1343 0000 2DE9F041 		push	{r4, r5, r6, r7, r8, lr}
 1344              	.LCFI18:
 1345              		.cfi_def_cfa_offset 24
 1346              		.cfi_offset 4, -24
 1347              		.cfi_offset 5, -20
 1348              		.cfi_offset 6, -16
 1349              		.cfi_offset 7, -12
 1350              		.cfi_offset 8, -8
 1351              		.cfi_offset 14, -4
 1352 0004 0646     		mov	r6, r0
 1353 0006 0F46     		mov	r7, r1
 526:Middlewares/ST/STM32_USB_Device_Library/Class/MSC/Src/usbd_msc_scsi.c ****   
 1354              		.loc 1 526 3 is_stmt 1 view .LVU428
 526:Middlewares/ST/STM32_USB_Device_Library/Class/MSC/Src/usbd_msc_scsi.c ****   
 1355              		.loc 1 526 32 is_stmt 0 view .LVU429
 1356 0008 D0F81842 		ldr	r4, [r0, #536]
 1357              	.LVL117:
 528:Middlewares/ST/STM32_USB_Device_Library/Class/MSC/Src/usbd_msc_scsi.c ****   {
 1358              		.loc 1 528 3 is_stmt 1 view .LVU430
 528:Middlewares/ST/STM32_USB_Device_Library/Class/MSC/Src/usbd_msc_scsi.c ****   {
 1359              		.loc 1 528 11 is_stmt 0 view .LVU431
 1360 000c 237A     		ldrb	r3, [r4, #8]	@ zero_extendqisi2
 528:Middlewares/ST/STM32_USB_Device_Library/Class/MSC/Src/usbd_msc_scsi.c ****   {
 1361              		.loc 1 528 6 view .LVU432
 1362 000e 002B     		cmp	r3, #0
 1363 0010 72D1     		bne	.L81
ARM GAS  C:\Users\gx\AppData\Local\Temp\ccExyhW8.s 			page 42


 1364 0012 1546     		mov	r5, r2
 533:Middlewares/ST/STM32_USB_Device_Library/Class/MSC/Src/usbd_msc_scsi.c ****     {
 1365              		.loc 1 533 5 is_stmt 1 view .LVU433
 533:Middlewares/ST/STM32_USB_Device_Library/Class/MSC/Src/usbd_msc_scsi.c ****     {
 1366              		.loc 1 533 36 is_stmt 0 view .LVU434
 1367 0014 94F91832 		ldrsb	r3, [r4, #536]
 533:Middlewares/ST/STM32_USB_Device_Library/Class/MSC/Src/usbd_msc_scsi.c ****     {
 1368              		.loc 1 533 8 view .LVU435
 1369 0018 002B     		cmp	r3, #0
 1370 001a 48DB     		blt	.L89
 543:Middlewares/ST/STM32_USB_Device_Library/Class/MSC/Src/usbd_msc_scsi.c ****     {
 1371              		.loc 1 543 5 is_stmt 1 view .LVU436
 543:Middlewares/ST/STM32_USB_Device_Library/Class/MSC/Src/usbd_msc_scsi.c ****     {
 1372              		.loc 1 543 36 is_stmt 0 view .LVU437
 1373 001c D0F81C32 		ldr	r3, [r0, #540]
 543:Middlewares/ST/STM32_USB_Device_Library/Class/MSC/Src/usbd_msc_scsi.c ****     {
 1374              		.loc 1 543 48 view .LVU438
 1375 0020 9B68     		ldr	r3, [r3, #8]
 543:Middlewares/ST/STM32_USB_Device_Library/Class/MSC/Src/usbd_msc_scsi.c ****     {
 1376              		.loc 1 543 9 view .LVU439
 1377 0022 0846     		mov	r0, r1
 1378              	.LVL118:
 543:Middlewares/ST/STM32_USB_Device_Library/Class/MSC/Src/usbd_msc_scsi.c ****     {
 1379              		.loc 1 543 9 view .LVU440
 1380 0024 9847     		blx	r3
 1381              	.LVL119:
 543:Middlewares/ST/STM32_USB_Device_Library/Class/MSC/Src/usbd_msc_scsi.c ****     {
 1382              		.loc 1 543 7 view .LVU441
 1383 0026 0028     		cmp	r0, #0
 1384 0028 4AD1     		bne	.L90
 553:Middlewares/ST/STM32_USB_Device_Library/Class/MSC/Src/usbd_msc_scsi.c ****     {
 1385              		.loc 1 553 5 is_stmt 1 view .LVU442
 553:Middlewares/ST/STM32_USB_Device_Library/Class/MSC/Src/usbd_msc_scsi.c ****     {
 1386              		.loc 1 553 36 is_stmt 0 view .LVU443
 1387 002a D6F81C32 		ldr	r3, [r6, #540]
 553:Middlewares/ST/STM32_USB_Device_Library/Class/MSC/Src/usbd_msc_scsi.c ****     {
 1388              		.loc 1 553 48 view .LVU444
 1389 002e DB68     		ldr	r3, [r3, #12]
 553:Middlewares/ST/STM32_USB_Device_Library/Class/MSC/Src/usbd_msc_scsi.c ****     {
 1390              		.loc 1 553 9 view .LVU445
 1391 0030 3846     		mov	r0, r7
 1392 0032 9847     		blx	r3
 1393              	.LVL120:
 553:Middlewares/ST/STM32_USB_Device_Library/Class/MSC/Src/usbd_msc_scsi.c ****     {
 1394              		.loc 1 553 7 view .LVU446
 1395 0034 8046     		mov	r8, r0
 1396 0036 0028     		cmp	r0, #0
 1397 0038 4BD1     		bne	.L91
 563:Middlewares/ST/STM32_USB_Device_Library/Class/MSC/Src/usbd_msc_scsi.c ****       (params[3] << 16) | \
 1398              		.loc 1 563 5 is_stmt 1 view .LVU447
 563:Middlewares/ST/STM32_USB_Device_Library/Class/MSC/Src/usbd_msc_scsi.c ****       (params[3] << 16) | \
 1399              		.loc 1 563 34 is_stmt 0 view .LVU448
 1400 003a AA78     		ldrb	r2, [r5, #2]	@ zero_extendqisi2
 564:Middlewares/ST/STM32_USB_Device_Library/Class/MSC/Src/usbd_msc_scsi.c ****         (params[4] <<  8) | \
 1401              		.loc 1 564 14 view .LVU449
 1402 003c EB78     		ldrb	r3, [r5, #3]	@ zero_extendqisi2
 564:Middlewares/ST/STM32_USB_Device_Library/Class/MSC/Src/usbd_msc_scsi.c ****         (params[4] <<  8) | \
ARM GAS  C:\Users\gx\AppData\Local\Temp\ccExyhW8.s 			page 43


 1403              		.loc 1 564 18 view .LVU450
 1404 003e 1B04     		lsls	r3, r3, #16
 563:Middlewares/ST/STM32_USB_Device_Library/Class/MSC/Src/usbd_msc_scsi.c ****       (params[3] << 16) | \
 1405              		.loc 1 563 45 view .LVU451
 1406 0040 43EA0263 		orr	r3, r3, r2, lsl #24
 565:Middlewares/ST/STM32_USB_Device_Library/Class/MSC/Src/usbd_msc_scsi.c ****           params[5];
 1407              		.loc 1 565 16 view .LVU452
 1408 0044 2A79     		ldrb	r2, [r5, #4]	@ zero_extendqisi2
 564:Middlewares/ST/STM32_USB_Device_Library/Class/MSC/Src/usbd_msc_scsi.c ****         (params[4] <<  8) | \
 1409              		.loc 1 564 25 view .LVU453
 1410 0046 43EA0223 		orr	r3, r3, r2, lsl #8
 566:Middlewares/ST/STM32_USB_Device_Library/Class/MSC/Src/usbd_msc_scsi.c ****     hmsc->scsi_blk_len = (params[7] <<  8) | \
 1411              		.loc 1 566 17 view .LVU454
 1412 004a 6A79     		ldrb	r2, [r5, #5]	@ zero_extendqisi2
 565:Middlewares/ST/STM32_USB_Device_Library/Class/MSC/Src/usbd_msc_scsi.c ****           params[5];
 1413              		.loc 1 565 27 view .LVU455
 1414 004c 1A43     		orrs	r2, r2, r3
 563:Middlewares/ST/STM32_USB_Device_Library/Class/MSC/Src/usbd_msc_scsi.c ****       (params[3] << 16) | \
 1415              		.loc 1 563 25 view .LVU456
 1416 004e C4F86422 		str	r2, [r4, #612]
 567:Middlewares/ST/STM32_USB_Device_Library/Class/MSC/Src/usbd_msc_scsi.c ****       params[8];  
 1417              		.loc 1 567 5 is_stmt 1 view .LVU457
 567:Middlewares/ST/STM32_USB_Device_Library/Class/MSC/Src/usbd_msc_scsi.c ****       params[8];  
 1418              		.loc 1 567 33 is_stmt 0 view .LVU458
 1419 0052 E979     		ldrb	r1, [r5, #7]	@ zero_extendqisi2
 568:Middlewares/ST/STM32_USB_Device_Library/Class/MSC/Src/usbd_msc_scsi.c ****     
 1420              		.loc 1 568 13 view .LVU459
 1421 0054 2B7A     		ldrb	r3, [r5, #8]	@ zero_extendqisi2
 567:Middlewares/ST/STM32_USB_Device_Library/Class/MSC/Src/usbd_msc_scsi.c ****       params[8];  
 1422              		.loc 1 567 44 view .LVU460
 1423 0056 43EA0123 		orr	r3, r3, r1, lsl #8
 567:Middlewares/ST/STM32_USB_Device_Library/Class/MSC/Src/usbd_msc_scsi.c ****       params[8];  
 1424              		.loc 1 567 24 view .LVU461
 1425 005a C4F86832 		str	r3, [r4, #616]
 571:Middlewares/ST/STM32_USB_Device_Library/Class/MSC/Src/usbd_msc_scsi.c ****                               lun,
 1426              		.loc 1 571 5 is_stmt 1 view .LVU462
 571:Middlewares/ST/STM32_USB_Device_Library/Class/MSC/Src/usbd_msc_scsi.c ****                               lun,
 1427              		.loc 1 571 8 is_stmt 0 view .LVU463
 1428 005e 3946     		mov	r1, r7
 1429 0060 3046     		mov	r0, r6
 1430 0062 FFF7FEFF 		bl	SCSI_CheckAddressRange
 1431              	.LVL121:
 571:Middlewares/ST/STM32_USB_Device_Library/Class/MSC/Src/usbd_msc_scsi.c ****                               lun,
 1432              		.loc 1 571 7 view .LVU464
 1433 0066 0028     		cmp	r0, #0
 1434 0068 4ADB     		blt	.L87
 579:Middlewares/ST/STM32_USB_Device_Library/Class/MSC/Src/usbd_msc_scsi.c ****     hmsc->scsi_blk_len  *= hmsc->scsi_blk_size;
 1435              		.loc 1 579 5 is_stmt 1 view .LVU465
 579:Middlewares/ST/STM32_USB_Device_Library/Class/MSC/Src/usbd_msc_scsi.c ****     hmsc->scsi_blk_len  *= hmsc->scsi_blk_size;
 1436              		.loc 1 579 32 is_stmt 0 view .LVU466
 1437 006a B4F85E12 		ldrh	r1, [r4, #606]
 579:Middlewares/ST/STM32_USB_Device_Library/Class/MSC/Src/usbd_msc_scsi.c ****     hmsc->scsi_blk_len  *= hmsc->scsi_blk_size;
 1438              		.loc 1 579 25 view .LVU467
 1439 006e D4F86422 		ldr	r2, [r4, #612]
 1440 0072 01FB02F2 		mul	r2, r1, r2
 1441 0076 C4F86422 		str	r2, [r4, #612]
 580:Middlewares/ST/STM32_USB_Device_Library/Class/MSC/Src/usbd_msc_scsi.c ****     
ARM GAS  C:\Users\gx\AppData\Local\Temp\ccExyhW8.s 			page 44


 1442              		.loc 1 580 5 is_stmt 1 view .LVU468
 580:Middlewares/ST/STM32_USB_Device_Library/Class/MSC/Src/usbd_msc_scsi.c ****     
 1443              		.loc 1 580 25 is_stmt 0 view .LVU469
 1444 007a D4F86832 		ldr	r3, [r4, #616]
 1445 007e 03FB01F3 		mul	r3, r3, r1
 1446 0082 C4F86832 		str	r3, [r4, #616]
 583:Middlewares/ST/STM32_USB_Device_Library/Class/MSC/Src/usbd_msc_scsi.c ****     {
 1447              		.loc 1 583 5 is_stmt 1 view .LVU470
 583:Middlewares/ST/STM32_USB_Device_Library/Class/MSC/Src/usbd_msc_scsi.c ****     {
 1448              		.loc 1 583 18 is_stmt 0 view .LVU471
 1449 0086 D4F81422 		ldr	r2, [r4, #532]
 583:Middlewares/ST/STM32_USB_Device_Library/Class/MSC/Src/usbd_msc_scsi.c ****     {
 1450              		.loc 1 583 8 view .LVU472
 1451 008a 9342     		cmp	r3, r2
 1452 008c 2AD1     		bne	.L92
 593:Middlewares/ST/STM32_USB_Device_Library/Class/MSC/Src/usbd_msc_scsi.c ****     USBD_LL_PrepareReceive (pdev,
 1453              		.loc 1 593 5 is_stmt 1 view .LVU473
 593:Middlewares/ST/STM32_USB_Device_Library/Class/MSC/Src/usbd_msc_scsi.c ****     USBD_LL_PrepareReceive (pdev,
 1454              		.loc 1 593 21 is_stmt 0 view .LVU474
 1455 008e 0121     		movs	r1, #1
 1456 0090 2172     		strb	r1, [r4, #8]
 594:Middlewares/ST/STM32_USB_Device_Library/Class/MSC/Src/usbd_msc_scsi.c ****                       MSC_EPOUT_ADDR,
 1457              		.loc 1 594 5 is_stmt 1 view .LVU475
 597:Middlewares/ST/STM32_USB_Device_Library/Class/MSC/Src/usbd_msc_scsi.c ****   }
 1458              		.loc 1 597 23 is_stmt 0 view .LVU476
 1459 0092 B3F5007F 		cmp	r3, #512
 1460 0096 28BF     		it	cs
 1461 0098 4FF40073 		movcs	r3, #512
 594:Middlewares/ST/STM32_USB_Device_Library/Class/MSC/Src/usbd_msc_scsi.c ****                       MSC_EPOUT_ADDR,
 1462              		.loc 1 594 5 view .LVU477
 1463 009c 9BB2     		uxth	r3, r3
 1464 009e 04F10C02 		add	r2, r4, #12
 1465 00a2 3046     		mov	r0, r6
 1466 00a4 FFF7FEFF 		bl	USBD_LL_PrepareReceive
 1467              	.LVL122:
 603:Middlewares/ST/STM32_USB_Device_Library/Class/MSC/Src/usbd_msc_scsi.c **** }
 1468              		.loc 1 603 3 is_stmt 1 view .LVU478
 1469              	.L83:
 604:Middlewares/ST/STM32_USB_Device_Library/Class/MSC/Src/usbd_msc_scsi.c **** 
 1470              		.loc 1 604 1 is_stmt 0 view .LVU479
 1471 00a8 4046     		mov	r0, r8
 1472 00aa BDE8F081 		pop	{r4, r5, r6, r7, r8, pc}
 1473              	.LVL123:
 1474              	.L89:
 535:Middlewares/ST/STM32_USB_Device_Library/Class/MSC/Src/usbd_msc_scsi.c ****                      hmsc->cbw.bLUN, 
 1475              		.loc 1 535 7 is_stmt 1 view .LVU480
 1476 00ae 2023     		movs	r3, #32
 1477 00b0 0522     		movs	r2, #5
 1478              	.LVL124:
 535:Middlewares/ST/STM32_USB_Device_Library/Class/MSC/Src/usbd_msc_scsi.c ****                      hmsc->cbw.bLUN, 
 1479              		.loc 1 535 7 is_stmt 0 view .LVU481
 1480 00b2 94F81912 		ldrb	r1, [r4, #537]	@ zero_extendqisi2
 1481              	.LVL125:
 535:Middlewares/ST/STM32_USB_Device_Library/Class/MSC/Src/usbd_msc_scsi.c ****                      hmsc->cbw.bLUN, 
 1482              		.loc 1 535 7 view .LVU482
 1483 00b6 FFF7FEFF 		bl	SCSI_SenseCode
 1484              	.LVL126:
ARM GAS  C:\Users\gx\AppData\Local\Temp\ccExyhW8.s 			page 45


 539:Middlewares/ST/STM32_USB_Device_Library/Class/MSC/Src/usbd_msc_scsi.c ****     }
 1485              		.loc 1 539 7 is_stmt 1 view .LVU483
 539:Middlewares/ST/STM32_USB_Device_Library/Class/MSC/Src/usbd_msc_scsi.c ****     }
 1486              		.loc 1 539 14 is_stmt 0 view .LVU484
 1487 00ba 4FF0FF38 		mov	r8, #-1
 1488 00be F3E7     		b	.L83
 1489              	.L90:
 545:Middlewares/ST/STM32_USB_Device_Library/Class/MSC/Src/usbd_msc_scsi.c ****                      lun,
 1490              		.loc 1 545 7 is_stmt 1 view .LVU485
 1491 00c0 3A23     		movs	r3, #58
 1492 00c2 0222     		movs	r2, #2
 1493 00c4 3946     		mov	r1, r7
 1494 00c6 3046     		mov	r0, r6
 1495 00c8 FFF7FEFF 		bl	SCSI_SenseCode
 1496              	.LVL127:
 549:Middlewares/ST/STM32_USB_Device_Library/Class/MSC/Src/usbd_msc_scsi.c ****     } 
 1497              		.loc 1 549 7 view .LVU486
 549:Middlewares/ST/STM32_USB_Device_Library/Class/MSC/Src/usbd_msc_scsi.c ****     } 
 1498              		.loc 1 549 14 is_stmt 0 view .LVU487
 1499 00cc 4FF0FF38 		mov	r8, #-1
 1500 00d0 EAE7     		b	.L83
 1501              	.L91:
 555:Middlewares/ST/STM32_USB_Device_Library/Class/MSC/Src/usbd_msc_scsi.c ****                      lun,
 1502              		.loc 1 555 7 is_stmt 1 view .LVU488
 1503 00d2 2723     		movs	r3, #39
 1504 00d4 0222     		movs	r2, #2
 1505 00d6 3946     		mov	r1, r7
 1506 00d8 3046     		mov	r0, r6
 1507 00da FFF7FEFF 		bl	SCSI_SenseCode
 1508              	.LVL128:
 559:Middlewares/ST/STM32_USB_Device_Library/Class/MSC/Src/usbd_msc_scsi.c ****     } 
 1509              		.loc 1 559 7 view .LVU489
 559:Middlewares/ST/STM32_USB_Device_Library/Class/MSC/Src/usbd_msc_scsi.c ****     } 
 1510              		.loc 1 559 14 is_stmt 0 view .LVU490
 1511 00de 4FF0FF38 		mov	r8, #-1
 1512 00e2 E1E7     		b	.L83
 1513              	.L92:
 585:Middlewares/ST/STM32_USB_Device_Library/Class/MSC/Src/usbd_msc_scsi.c ****                      hmsc->cbw.bLUN, 
 1514              		.loc 1 585 7 is_stmt 1 view .LVU491
 1515 00e4 2023     		movs	r3, #32
 1516 00e6 0522     		movs	r2, #5
 1517 00e8 94F81912 		ldrb	r1, [r4, #537]	@ zero_extendqisi2
 1518 00ec 3046     		mov	r0, r6
 1519 00ee FFF7FEFF 		bl	SCSI_SenseCode
 1520              	.LVL129:
 589:Middlewares/ST/STM32_USB_Device_Library/Class/MSC/Src/usbd_msc_scsi.c ****     }
 1521              		.loc 1 589 7 view .LVU492
 589:Middlewares/ST/STM32_USB_Device_Library/Class/MSC/Src/usbd_msc_scsi.c ****     }
 1522              		.loc 1 589 14 is_stmt 0 view .LVU493
 1523 00f2 4FF0FF38 		mov	r8, #-1
 1524 00f6 D7E7     		b	.L83
 1525              	.LVL130:
 1526              	.L81:
 601:Middlewares/ST/STM32_USB_Device_Library/Class/MSC/Src/usbd_msc_scsi.c ****   }
 1527              		.loc 1 601 5 is_stmt 1 view .LVU494
 601:Middlewares/ST/STM32_USB_Device_Library/Class/MSC/Src/usbd_msc_scsi.c ****   }
 1528              		.loc 1 601 12 is_stmt 0 view .LVU495
ARM GAS  C:\Users\gx\AppData\Local\Temp\ccExyhW8.s 			page 46


 1529 00f8 FFF7FEFF 		bl	SCSI_ProcessWrite
 1530              	.LVL131:
 601:Middlewares/ST/STM32_USB_Device_Library/Class/MSC/Src/usbd_msc_scsi.c ****   }
 1531              		.loc 1 601 12 view .LVU496
 1532 00fc 8046     		mov	r8, r0
 1533 00fe D3E7     		b	.L83
 1534              	.LVL132:
 1535              	.L87:
 576:Middlewares/ST/STM32_USB_Device_Library/Class/MSC/Src/usbd_msc_scsi.c ****     }
 1536              		.loc 1 576 14 view .LVU497
 1537 0100 4FF0FF38 		mov	r8, #-1
 1538 0104 D0E7     		b	.L83
 1539              		.cfi_endproc
 1540              	.LFE137:
 1542              		.section	.text.SCSI_Verify10,"ax",%progbits
 1543              		.align	1
 1544              		.syntax unified
 1545              		.thumb
 1546              		.thumb_func
 1547              		.fpu fpv4-sp-d16
 1549              	SCSI_Verify10:
 1550              	.LVL133:
 1551              	.LFB138:
 616:Middlewares/ST/STM32_USB_Device_Library/Class/MSC/Src/usbd_msc_scsi.c ****   USBD_MSC_BOT_HandleTypeDef  *hmsc = (USBD_MSC_BOT_HandleTypeDef*) pdev->pClassData; 
 1552              		.loc 1 616 1 is_stmt 1 view -0
 1553              		.cfi_startproc
 1554              		@ args = 0, pretend = 0, frame = 0
 1555              		@ frame_needed = 0, uses_anonymous_args = 0
 616:Middlewares/ST/STM32_USB_Device_Library/Class/MSC/Src/usbd_msc_scsi.c ****   USBD_MSC_BOT_HandleTypeDef  *hmsc = (USBD_MSC_BOT_HandleTypeDef*) pdev->pClassData; 
 1556              		.loc 1 616 1 is_stmt 0 view .LVU499
 1557 0000 10B5     		push	{r4, lr}
 1558              	.LCFI19:
 1559              		.cfi_def_cfa_offset 8
 1560              		.cfi_offset 4, -8
 1561              		.cfi_offset 14, -4
 617:Middlewares/ST/STM32_USB_Device_Library/Class/MSC/Src/usbd_msc_scsi.c ****   
 1562              		.loc 1 617 3 is_stmt 1 view .LVU500
 617:Middlewares/ST/STM32_USB_Device_Library/Class/MSC/Src/usbd_msc_scsi.c ****   
 1563              		.loc 1 617 32 is_stmt 0 view .LVU501
 1564 0002 D0F81842 		ldr	r4, [r0, #536]
 1565              	.LVL134:
 619:Middlewares/ST/STM32_USB_Device_Library/Class/MSC/Src/usbd_msc_scsi.c ****   {
 1566              		.loc 1 619 3 is_stmt 1 view .LVU502
 619:Middlewares/ST/STM32_USB_Device_Library/Class/MSC/Src/usbd_msc_scsi.c ****   {
 1567              		.loc 1 619 14 is_stmt 0 view .LVU503
 1568 0006 5378     		ldrb	r3, [r2, #1]	@ zero_extendqisi2
 619:Middlewares/ST/STM32_USB_Device_Library/Class/MSC/Src/usbd_msc_scsi.c ****   {
 1569              		.loc 1 619 6 view .LVU504
 1570 0008 13F0020F 		tst	r3, #2
 1571 000c 0AD1     		bne	.L98
 628:Middlewares/ST/STM32_USB_Device_Library/Class/MSC/Src/usbd_msc_scsi.c ****                             lun, 
 1572              		.loc 1 628 3 is_stmt 1 view .LVU505
 628:Middlewares/ST/STM32_USB_Device_Library/Class/MSC/Src/usbd_msc_scsi.c ****                             lun, 
 1573              		.loc 1 628 6 is_stmt 0 view .LVU506
 1574 000e B4F86832 		ldrh	r3, [r4, #616]
 1575 0012 D4F86422 		ldr	r2, [r4, #612]
 1576              	.LVL135:
ARM GAS  C:\Users\gx\AppData\Local\Temp\ccExyhW8.s 			page 47


 628:Middlewares/ST/STM32_USB_Device_Library/Class/MSC/Src/usbd_msc_scsi.c ****                             lun, 
 1577              		.loc 1 628 6 view .LVU507
 1578 0016 FFF7FEFF 		bl	SCSI_CheckAddressRange
 1579              	.LVL136:
 628:Middlewares/ST/STM32_USB_Device_Library/Class/MSC/Src/usbd_msc_scsi.c ****                             lun, 
 1580              		.loc 1 628 5 view .LVU508
 1581 001a 0028     		cmp	r0, #0
 1582 001c 09DB     		blt	.L96
 635:Middlewares/ST/STM32_USB_Device_Library/Class/MSC/Src/usbd_msc_scsi.c ****   return 0;
 1583              		.loc 1 635 3 is_stmt 1 view .LVU509
 635:Middlewares/ST/STM32_USB_Device_Library/Class/MSC/Src/usbd_msc_scsi.c ****   return 0;
 1584              		.loc 1 635 25 is_stmt 0 view .LVU510
 1585 001e 0020     		movs	r0, #0
 1586 0020 6081     		strh	r0, [r4, #10]	@ movhi
 636:Middlewares/ST/STM32_USB_Device_Library/Class/MSC/Src/usbd_msc_scsi.c **** }
 1587              		.loc 1 636 3 is_stmt 1 view .LVU511
 1588              	.L95:
 637:Middlewares/ST/STM32_USB_Device_Library/Class/MSC/Src/usbd_msc_scsi.c **** 
 1589              		.loc 1 637 1 is_stmt 0 view .LVU512
 1590 0022 10BD     		pop	{r4, pc}
 1591              	.LVL137:
 1592              	.L98:
 621:Middlewares/ST/STM32_USB_Device_Library/Class/MSC/Src/usbd_msc_scsi.c ****                     lun, 
 1593              		.loc 1 621 5 is_stmt 1 view .LVU513
 1594 0024 2423     		movs	r3, #36
 1595 0026 0522     		movs	r2, #5
 1596              	.LVL138:
 621:Middlewares/ST/STM32_USB_Device_Library/Class/MSC/Src/usbd_msc_scsi.c ****                     lun, 
 1597              		.loc 1 621 5 is_stmt 0 view .LVU514
 1598 0028 FFF7FEFF 		bl	SCSI_SenseCode
 1599              	.LVL139:
 625:Middlewares/ST/STM32_USB_Device_Library/Class/MSC/Src/usbd_msc_scsi.c ****   }
 1600              		.loc 1 625 5 is_stmt 1 view .LVU515
 625:Middlewares/ST/STM32_USB_Device_Library/Class/MSC/Src/usbd_msc_scsi.c ****   }
 1601              		.loc 1 625 12 is_stmt 0 view .LVU516
 1602 002c 4FF0FF30 		mov	r0, #-1
 1603 0030 F7E7     		b	.L95
 1604              	.L96:
 633:Middlewares/ST/STM32_USB_Device_Library/Class/MSC/Src/usbd_msc_scsi.c ****   }
 1605              		.loc 1 633 12 view .LVU517
 1606 0032 4FF0FF30 		mov	r0, #-1
 1607 0036 F4E7     		b	.L95
 1608              		.cfi_endproc
 1609              	.LFE138:
 1611              		.section	.text.SCSI_ProcessCmd,"ax",%progbits
 1612              		.align	1
 1613              		.global	SCSI_ProcessCmd
 1614              		.syntax unified
 1615              		.thumb
 1616              		.thumb_func
 1617              		.fpu fpv4-sp-d16
 1619              	SCSI_ProcessCmd:
 1620              	.LVL140:
 1621              	.LFB126:
 124:Middlewares/ST/STM32_USB_Device_Library/Class/MSC/Src/usbd_msc_scsi.c ****   
 1622              		.loc 1 124 1 is_stmt 1 view -0
 1623              		.cfi_startproc
ARM GAS  C:\Users\gx\AppData\Local\Temp\ccExyhW8.s 			page 48


 1624              		@ args = 0, pretend = 0, frame = 0
 1625              		@ frame_needed = 0, uses_anonymous_args = 0
 124:Middlewares/ST/STM32_USB_Device_Library/Class/MSC/Src/usbd_msc_scsi.c ****   
 1626              		.loc 1 124 1 is_stmt 0 view .LVU519
 1627 0000 08B5     		push	{r3, lr}
 1628              	.LCFI20:
 1629              		.cfi_def_cfa_offset 8
 1630              		.cfi_offset 3, -8
 1631              		.cfi_offset 14, -4
 126:Middlewares/ST/STM32_USB_Device_Library/Class/MSC/Src/usbd_msc_scsi.c ****   {
 1632              		.loc 1 126 3 is_stmt 1 view .LVU520
 126:Middlewares/ST/STM32_USB_Device_Library/Class/MSC/Src/usbd_msc_scsi.c ****   {
 1633              		.loc 1 126 17 is_stmt 0 view .LVU521
 1634 0002 1378     		ldrb	r3, [r2]	@ zero_extendqisi2
 1635 0004 5A2B     		cmp	r3, #90
 1636 0006 53D8     		bhi	.L100
 1637 0008 DFE803F0 		tbb	[pc, r3]
 1638              	.L102:
 1639 000c 2E       		.byte	(.L113-.L102)/2
 1640 000d 52       		.byte	(.L100-.L102)/2
 1641 000e 52       		.byte	(.L100-.L102)/2
 1642 000f 31       		.byte	(.L112-.L102)/2
 1643 0010 52       		.byte	(.L100-.L102)/2
 1644 0011 52       		.byte	(.L100-.L102)/2
 1645 0012 52       		.byte	(.L100-.L102)/2
 1646 0013 52       		.byte	(.L100-.L102)/2
 1647 0014 52       		.byte	(.L100-.L102)/2
 1648 0015 52       		.byte	(.L100-.L102)/2
 1649 0016 52       		.byte	(.L100-.L102)/2
 1650 0017 52       		.byte	(.L100-.L102)/2
 1651 0018 52       		.byte	(.L100-.L102)/2
 1652 0019 52       		.byte	(.L100-.L102)/2
 1653 001a 52       		.byte	(.L100-.L102)/2
 1654 001b 52       		.byte	(.L100-.L102)/2
 1655 001c 52       		.byte	(.L100-.L102)/2
 1656 001d 52       		.byte	(.L100-.L102)/2
 1657 001e 34       		.byte	(.L111-.L102)/2
 1658 001f 52       		.byte	(.L100-.L102)/2
 1659 0020 52       		.byte	(.L100-.L102)/2
 1660 0021 52       		.byte	(.L100-.L102)/2
 1661 0022 52       		.byte	(.L100-.L102)/2
 1662 0023 52       		.byte	(.L100-.L102)/2
 1663 0024 52       		.byte	(.L100-.L102)/2
 1664 0025 52       		.byte	(.L100-.L102)/2
 1665 0026 3D       		.byte	(.L110-.L102)/2
 1666 0027 37       		.byte	(.L109-.L102)/2
 1667 0028 52       		.byte	(.L100-.L102)/2
 1668 0029 52       		.byte	(.L100-.L102)/2
 1669 002a 3A       		.byte	(.L108-.L102)/2
 1670 002b 52       		.byte	(.L100-.L102)/2
 1671 002c 52       		.byte	(.L100-.L102)/2
 1672 002d 52       		.byte	(.L100-.L102)/2
 1673 002e 52       		.byte	(.L100-.L102)/2
 1674 002f 43       		.byte	(.L107-.L102)/2
 1675 0030 52       		.byte	(.L100-.L102)/2
 1676 0031 46       		.byte	(.L106-.L102)/2
 1677 0032 52       		.byte	(.L100-.L102)/2
ARM GAS  C:\Users\gx\AppData\Local\Temp\ccExyhW8.s 			page 49


 1678 0033 52       		.byte	(.L100-.L102)/2
 1679 0034 49       		.byte	(.L105-.L102)/2
 1680 0035 52       		.byte	(.L100-.L102)/2
 1681 0036 4C       		.byte	(.L104-.L102)/2
 1682 0037 52       		.byte	(.L100-.L102)/2
 1683 0038 52       		.byte	(.L100-.L102)/2
 1684 0039 52       		.byte	(.L100-.L102)/2
 1685 003a 52       		.byte	(.L100-.L102)/2
 1686 003b 4F       		.byte	(.L103-.L102)/2
 1687 003c 52       		.byte	(.L100-.L102)/2
 1688 003d 52       		.byte	(.L100-.L102)/2
 1689 003e 52       		.byte	(.L100-.L102)/2
 1690 003f 52       		.byte	(.L100-.L102)/2
 1691 0040 52       		.byte	(.L100-.L102)/2
 1692 0041 52       		.byte	(.L100-.L102)/2
 1693 0042 52       		.byte	(.L100-.L102)/2
 1694 0043 52       		.byte	(.L100-.L102)/2
 1695 0044 52       		.byte	(.L100-.L102)/2
 1696 0045 52       		.byte	(.L100-.L102)/2
 1697 0046 52       		.byte	(.L100-.L102)/2
 1698 0047 52       		.byte	(.L100-.L102)/2
 1699 0048 52       		.byte	(.L100-.L102)/2
 1700 0049 52       		.byte	(.L100-.L102)/2
 1701 004a 52       		.byte	(.L100-.L102)/2
 1702 004b 52       		.byte	(.L100-.L102)/2
 1703 004c 52       		.byte	(.L100-.L102)/2
 1704 004d 52       		.byte	(.L100-.L102)/2
 1705 004e 52       		.byte	(.L100-.L102)/2
 1706 004f 52       		.byte	(.L100-.L102)/2
 1707 0050 52       		.byte	(.L100-.L102)/2
 1708 0051 52       		.byte	(.L100-.L102)/2
 1709 0052 52       		.byte	(.L100-.L102)/2
 1710 0053 52       		.byte	(.L100-.L102)/2
 1711 0054 52       		.byte	(.L100-.L102)/2
 1712 0055 52       		.byte	(.L100-.L102)/2
 1713 0056 52       		.byte	(.L100-.L102)/2
 1714 0057 52       		.byte	(.L100-.L102)/2
 1715 0058 52       		.byte	(.L100-.L102)/2
 1716 0059 52       		.byte	(.L100-.L102)/2
 1717 005a 52       		.byte	(.L100-.L102)/2
 1718 005b 52       		.byte	(.L100-.L102)/2
 1719 005c 52       		.byte	(.L100-.L102)/2
 1720 005d 52       		.byte	(.L100-.L102)/2
 1721 005e 52       		.byte	(.L100-.L102)/2
 1722 005f 52       		.byte	(.L100-.L102)/2
 1723 0060 52       		.byte	(.L100-.L102)/2
 1724 0061 52       		.byte	(.L100-.L102)/2
 1725 0062 52       		.byte	(.L100-.L102)/2
 1726 0063 52       		.byte	(.L100-.L102)/2
 1727 0064 52       		.byte	(.L100-.L102)/2
 1728 0065 52       		.byte	(.L100-.L102)/2
 1729 0066 40       		.byte	(.L101-.L102)/2
 1730 0067 00       		.p2align 1
 1731              	.L113:
 129:Middlewares/ST/STM32_USB_Device_Library/Class/MSC/Src/usbd_msc_scsi.c ****     
 1732              		.loc 1 129 5 is_stmt 1 view .LVU522
 129:Middlewares/ST/STM32_USB_Device_Library/Class/MSC/Src/usbd_msc_scsi.c ****     
ARM GAS  C:\Users\gx\AppData\Local\Temp\ccExyhW8.s 			page 50


 1733              		.loc 1 129 12 is_stmt 0 view .LVU523
 1734 0068 FFF7FEFF 		bl	SCSI_TestUnitReady
 1735              	.LVL141:
 1736              	.L114:
 170:Middlewares/ST/STM32_USB_Device_Library/Class/MSC/Src/usbd_msc_scsi.c **** 
 1737              		.loc 1 170 1 view .LVU524
 1738 006c 08BD     		pop	{r3, pc}
 1739              	.LVL142:
 1740              	.L112:
 132:Middlewares/ST/STM32_USB_Device_Library/Class/MSC/Src/usbd_msc_scsi.c ****   case SCSI_INQUIRY:
 1741              		.loc 1 132 5 is_stmt 1 view .LVU525
 132:Middlewares/ST/STM32_USB_Device_Library/Class/MSC/Src/usbd_msc_scsi.c ****   case SCSI_INQUIRY:
 1742              		.loc 1 132 12 is_stmt 0 view .LVU526
 1743 006e FFF7FEFF 		bl	SCSI_RequestSense
 1744              	.LVL143:
 132:Middlewares/ST/STM32_USB_Device_Library/Class/MSC/Src/usbd_msc_scsi.c ****   case SCSI_INQUIRY:
 1745              		.loc 1 132 12 view .LVU527
 1746 0072 FBE7     		b	.L114
 1747              	.LVL144:
 1748              	.L111:
 134:Middlewares/ST/STM32_USB_Device_Library/Class/MSC/Src/usbd_msc_scsi.c ****     
 1749              		.loc 1 134 5 is_stmt 1 view .LVU528
 134:Middlewares/ST/STM32_USB_Device_Library/Class/MSC/Src/usbd_msc_scsi.c ****     
 1750              		.loc 1 134 12 is_stmt 0 view .LVU529
 1751 0074 FFF7FEFF 		bl	SCSI_Inquiry
 1752              	.LVL145:
 134:Middlewares/ST/STM32_USB_Device_Library/Class/MSC/Src/usbd_msc_scsi.c ****     
 1753              		.loc 1 134 12 view .LVU530
 1754 0078 F8E7     		b	.L114
 1755              	.LVL146:
 1756              	.L109:
 137:Middlewares/ST/STM32_USB_Device_Library/Class/MSC/Src/usbd_msc_scsi.c ****     
 1757              		.loc 1 137 5 is_stmt 1 view .LVU531
 137:Middlewares/ST/STM32_USB_Device_Library/Class/MSC/Src/usbd_msc_scsi.c ****     
 1758              		.loc 1 137 12 is_stmt 0 view .LVU532
 1759 007a FFF7FEFF 		bl	SCSI_StartStopUnit
 1760              	.LVL147:
 137:Middlewares/ST/STM32_USB_Device_Library/Class/MSC/Src/usbd_msc_scsi.c ****     
 1761              		.loc 1 137 12 view .LVU533
 1762 007e F5E7     		b	.L114
 1763              	.LVL148:
 1764              	.L108:
 140:Middlewares/ST/STM32_USB_Device_Library/Class/MSC/Src/usbd_msc_scsi.c ****     
 1765              		.loc 1 140 5 is_stmt 1 view .LVU534
 140:Middlewares/ST/STM32_USB_Device_Library/Class/MSC/Src/usbd_msc_scsi.c ****     
 1766              		.loc 1 140 12 is_stmt 0 view .LVU535
 1767 0080 FFF7FEFF 		bl	SCSI_StartStopUnit
 1768              	.LVL149:
 140:Middlewares/ST/STM32_USB_Device_Library/Class/MSC/Src/usbd_msc_scsi.c ****     
 1769              		.loc 1 140 12 view .LVU536
 1770 0084 F2E7     		b	.L114
 1771              	.LVL150:
 1772              	.L110:
 143:Middlewares/ST/STM32_USB_Device_Library/Class/MSC/Src/usbd_msc_scsi.c ****     
 1773              		.loc 1 143 5 is_stmt 1 view .LVU537
 143:Middlewares/ST/STM32_USB_Device_Library/Class/MSC/Src/usbd_msc_scsi.c ****     
 1774              		.loc 1 143 12 is_stmt 0 view .LVU538
ARM GAS  C:\Users\gx\AppData\Local\Temp\ccExyhW8.s 			page 51


 1775 0086 FFF7FEFF 		bl	SCSI_ModeSense6
 1776              	.LVL151:
 143:Middlewares/ST/STM32_USB_Device_Library/Class/MSC/Src/usbd_msc_scsi.c ****     
 1777              		.loc 1 143 12 view .LVU539
 1778 008a EFE7     		b	.L114
 1779              	.LVL152:
 1780              	.L101:
 146:Middlewares/ST/STM32_USB_Device_Library/Class/MSC/Src/usbd_msc_scsi.c ****     
 1781              		.loc 1 146 5 is_stmt 1 view .LVU540
 146:Middlewares/ST/STM32_USB_Device_Library/Class/MSC/Src/usbd_msc_scsi.c ****     
 1782              		.loc 1 146 12 is_stmt 0 view .LVU541
 1783 008c FFF7FEFF 		bl	SCSI_ModeSense10
 1784              	.LVL153:
 146:Middlewares/ST/STM32_USB_Device_Library/Class/MSC/Src/usbd_msc_scsi.c ****     
 1785              		.loc 1 146 12 view .LVU542
 1786 0090 ECE7     		b	.L114
 1787              	.LVL154:
 1788              	.L107:
 149:Middlewares/ST/STM32_USB_Device_Library/Class/MSC/Src/usbd_msc_scsi.c ****     
 1789              		.loc 1 149 5 is_stmt 1 view .LVU543
 149:Middlewares/ST/STM32_USB_Device_Library/Class/MSC/Src/usbd_msc_scsi.c ****     
 1790              		.loc 1 149 12 is_stmt 0 view .LVU544
 1791 0092 FFF7FEFF 		bl	SCSI_ReadFormatCapacity
 1792              	.LVL155:
 149:Middlewares/ST/STM32_USB_Device_Library/Class/MSC/Src/usbd_msc_scsi.c ****     
 1793              		.loc 1 149 12 view .LVU545
 1794 0096 E9E7     		b	.L114
 1795              	.LVL156:
 1796              	.L106:
 152:Middlewares/ST/STM32_USB_Device_Library/Class/MSC/Src/usbd_msc_scsi.c ****     
 1797              		.loc 1 152 5 is_stmt 1 view .LVU546
 152:Middlewares/ST/STM32_USB_Device_Library/Class/MSC/Src/usbd_msc_scsi.c ****     
 1798              		.loc 1 152 12 is_stmt 0 view .LVU547
 1799 0098 FFF7FEFF 		bl	SCSI_ReadCapacity10
 1800              	.LVL157:
 152:Middlewares/ST/STM32_USB_Device_Library/Class/MSC/Src/usbd_msc_scsi.c ****     
 1801              		.loc 1 152 12 view .LVU548
 1802 009c E6E7     		b	.L114
 1803              	.LVL158:
 1804              	.L105:
 155:Middlewares/ST/STM32_USB_Device_Library/Class/MSC/Src/usbd_msc_scsi.c ****     
 1805              		.loc 1 155 5 is_stmt 1 view .LVU549
 155:Middlewares/ST/STM32_USB_Device_Library/Class/MSC/Src/usbd_msc_scsi.c ****     
 1806              		.loc 1 155 12 is_stmt 0 view .LVU550
 1807 009e FFF7FEFF 		bl	SCSI_Read10
 1808              	.LVL159:
 155:Middlewares/ST/STM32_USB_Device_Library/Class/MSC/Src/usbd_msc_scsi.c ****     
 1809              		.loc 1 155 12 view .LVU551
 1810 00a2 E3E7     		b	.L114
 1811              	.LVL160:
 1812              	.L104:
 158:Middlewares/ST/STM32_USB_Device_Library/Class/MSC/Src/usbd_msc_scsi.c ****     
 1813              		.loc 1 158 5 is_stmt 1 view .LVU552
 158:Middlewares/ST/STM32_USB_Device_Library/Class/MSC/Src/usbd_msc_scsi.c ****     
 1814              		.loc 1 158 12 is_stmt 0 view .LVU553
 1815 00a4 FFF7FEFF 		bl	SCSI_Write10
 1816              	.LVL161:
ARM GAS  C:\Users\gx\AppData\Local\Temp\ccExyhW8.s 			page 52


 158:Middlewares/ST/STM32_USB_Device_Library/Class/MSC/Src/usbd_msc_scsi.c ****     
 1817              		.loc 1 158 12 view .LVU554
 1818 00a8 E0E7     		b	.L114
 1819              	.LVL162:
 1820              	.L103:
 161:Middlewares/ST/STM32_USB_Device_Library/Class/MSC/Src/usbd_msc_scsi.c ****     
 1821              		.loc 1 161 5 is_stmt 1 view .LVU555
 161:Middlewares/ST/STM32_USB_Device_Library/Class/MSC/Src/usbd_msc_scsi.c ****     
 1822              		.loc 1 161 12 is_stmt 0 view .LVU556
 1823 00aa FFF7FEFF 		bl	SCSI_Verify10
 1824              	.LVL163:
 161:Middlewares/ST/STM32_USB_Device_Library/Class/MSC/Src/usbd_msc_scsi.c ****     
 1825              		.loc 1 161 12 view .LVU557
 1826 00ae DDE7     		b	.L114
 1827              	.LVL164:
 1828              	.L100:
 164:Middlewares/ST/STM32_USB_Device_Library/Class/MSC/Src/usbd_msc_scsi.c ****                    lun,
 1829              		.loc 1 164 5 is_stmt 1 view .LVU558
 1830 00b0 2023     		movs	r3, #32
 1831 00b2 0522     		movs	r2, #5
 1832              	.LVL165:
 164:Middlewares/ST/STM32_USB_Device_Library/Class/MSC/Src/usbd_msc_scsi.c ****                    lun,
 1833              		.loc 1 164 5 is_stmt 0 view .LVU559
 1834 00b4 FFF7FEFF 		bl	SCSI_SenseCode
 1835              	.LVL166:
 168:Middlewares/ST/STM32_USB_Device_Library/Class/MSC/Src/usbd_msc_scsi.c ****   }
 1836              		.loc 1 168 5 is_stmt 1 view .LVU560
 168:Middlewares/ST/STM32_USB_Device_Library/Class/MSC/Src/usbd_msc_scsi.c ****   }
 1837              		.loc 1 168 12 is_stmt 0 view .LVU561
 1838 00b8 4FF0FF30 		mov	r0, #-1
 1839 00bc D6E7     		b	.L114
 1840              		.cfi_endproc
 1841              	.LFE126:
 1843              		.text
 1844              	.Letext0:
 1845              		.file 2 "c:\\program files (x86)\\gnu arm embedded toolchain\\9 2020-q2-update\\arm-none-eabi\\inc
 1846              		.file 3 "c:\\program files (x86)\\gnu arm embedded toolchain\\9 2020-q2-update\\lib\\gcc\\arm-none
 1847              		.file 4 "c:\\program files (x86)\\gnu arm embedded toolchain\\9 2020-q2-update\\arm-none-eabi\\inc
 1848              		.file 5 "c:\\program files (x86)\\gnu arm embedded toolchain\\9 2020-q2-update\\arm-none-eabi\\inc
 1849              		.file 6 "c:\\program files (x86)\\gnu arm embedded toolchain\\9 2020-q2-update\\arm-none-eabi\\inc
 1850              		.file 7 "c:\\program files (x86)\\gnu arm embedded toolchain\\9 2020-q2-update\\arm-none-eabi\\inc
 1851              		.file 8 "c:\\program files (x86)\\gnu arm embedded toolchain\\9 2020-q2-update\\arm-none-eabi\\inc
 1852              		.file 9 "Drivers/CMSIS/Include/core_cm4.h"
 1853              		.file 10 "Drivers/CMSIS/Device/ST/STM32F4xx/Include/system_stm32f4xx.h"
 1854              		.file 11 "Middlewares/ST/STM32_USB_Device_Library/Core/Inc/usbd_def.h"
 1855              		.file 12 "Middlewares/ST/STM32_USB_Device_Library/Class/MSC/Inc/usbd_msc_bot.h"
 1856              		.file 13 "Middlewares/ST/STM32_USB_Device_Library/Class/MSC/Inc/usbd_msc_scsi.h"
 1857              		.file 14 "Middlewares/ST/STM32_USB_Device_Library/Class/MSC/Inc/usbd_msc.h"
 1858              		.file 15 "Middlewares/ST/STM32_USB_Device_Library/Class/MSC/Inc/usbd_msc_data.h"
 1859              		.file 16 "Middlewares/ST/STM32_USB_Device_Library/Core/Inc/usbd_core.h"
ARM GAS  C:\Users\gx\AppData\Local\Temp\ccExyhW8.s 			page 53

